LIBRARY vm32 
DESCRIPTION 'Allegris Foundation 1.0.00 for Microsoft Windows DLL for Win32 and Microsoft-C++ 4.2' 
EXPORTS 
?VAboutVAbout@@YAPAXXZ                                       @1 NONAME
?iam@VAbout@@UAEPAVVClass@@XZ                                @2 NONAME
??0VAbout@@QAE@XZ                                            @3 NONAME
??0VAbout@@QAE@PBD0PAVVWindow@@@Z                            @4 NONAME
??RVAbout@@QAEXPBD0PAVVWindow@@@Z                            @5 NONAME
??1VAbout@@UAE@XZ                                            @6 NONAME
?dialog@VAbout@@SAXPBDPAVVWindow@@@Z                         @7 NONAME
?dialog@VAbout@@SAXPBDPAVVWindow@@0ZZ                        @8 NONAME
?VAcceleratorVAccelerator@@YAPAXXZ                           @9 NONAME
?iam@VAccelerator@@UAEPAVVClass@@XZ                          @10 NONAME
??0VAccelerator@@QAE@XZ                                      @11 NONAME
??0VAccelerator@@QAE@H@Z                                     @12 NONAME
??0VAccelerator@@QAE@HPAVVObject@@P81@AEHXZ@Z                @13 NONAME
?call@VAccelerator@@QAEXXZ                                   @14 NONAME
?isEqual@VAccelerator@@UBEHPAVVObject@@@Z                    @15 NONAME
?hash@VAccelerator@@UBEJXZ                                   @16 NONAME
?putTo@VAccelerator@@UAEXAAVVArchiver@@@Z                    @17 NONAME
?getFrom@VAccelerator@@UAEXAAVVArchiver@@@Z                  @18 NONAME
?getFrom@VAccelerator@@UAEXAAVVArchiver@@PAVVObject@@H@Z     @19 NONAME
?VAddRemoveListVAddRemoveList@@YAPAXXZ                       @20 NONAME
?iam@VAddRemoveList@@UAEPAVVClass@@XZ                        @21 NONAME
??0VAddRemoveList@@QAE@XZ                                    @22 NONAME
??0VAddRemoveList@@QAE@PAVVWindow@@AAHPAVVCollection@@2PBD33@Z @23 NONAME
??RVAddRemoveList@@QAEXPAVVWindow@@AAHPAVVCollection@@2PBD33@Z @24 NONAME
??1VAddRemoveList@@UAE@XZ                                    @25 NONAME
?fill@VAddRemoveList@@IAEXXZ                                 @26 NONAME
?dialog@VAddRemoveList@@SAHPAVVWindow@@HPAVVCollection@@1PBD22ZZ @27 NONAME
?listChange@VAddRemoveList@@IAEHPAVVMultiListBox@@@Z         @28 NONAME
?add@VAddRemoveList@@IAEHPAVVButton@@@Z                      @29 NONAME
?remove@VAddRemoveList@@IAEHPAVVButton@@@Z                   @30 NONAME
?VAppViewVAppView@@YAPAXXZ                                   @31 NONAME
?iam@VAppView@@UAEPAVVClass@@XZ                              @32 NONAME
??0VAppView@@QAE@ABVVString@@ABVVFrame@@ABVVStyle@@@Z        @33 NONAME
??0VAppView@@QAE@ABVVString@@@Z                              @34 NONAME
??0VAppView@@QAE@ABVVFrame@@ABVVStyle@@@Z                    @35 NONAME
??0VAppView@@QAE@H@Z                                         @36 NONAME
??RVAppView@@QAEXABVVFrame@@ABVVStyle@@@Z                    @37 NONAME
??RVAppView@@QAEXABVVFrame@@PAVVWindow@@ABVVStyle@@@Z        @38 NONAME
??RVAppView@@QAEXABVVFrame@@ABVVStyle@@ABVVString@@@Z        @39 NONAME
??RVAppView@@QAEXABVVFrame@@PAVVWindow@@ABVVStyle@@ABVVString@@@Z @40 NONAME
??1VAppView@@UAE@XZ                                          @41 NONAME
?initialize@VAppView@@IAEXXZ                                 @42 NONAME
?getClassDefaultStyle@VAppView@@SAAAVVStyle@@XZ              @43 NONAME
?getDefaultStyle@VAppView@@UBEAAVVStyle@@XZ                  @44 NONAME
?getInfo@VAppView@@MAEXAAVVWinInfo@@@Z                       @45 NONAME
?getCtlColor@VAppView@@MAEIXZ                                @46 NONAME
?close@VAppView@@UAEHXZ                                      @47 NONAME
?quit@VAppView@@UAEHXZ                                       @48 NONAME
?menuSelected@VAppView@@UAEHPAVVPopupMenu@@@Z                @49 NONAME
?addPopup@VAppView@@UAEXPAVVObject@@@Z                       @50 NONAME
?removePopup@VAppView@@QAEXPAVVObject@@@Z                    @51 NONAME
?nextFocus@VAppView@@UAEHXZ                                  @52 NONAME
?prevFocus@VAppView@@UAEHXZ                                  @53 NONAME
?refreshMenu@VAppView@@QAEXH@Z                               @54 NONAME
?setAppIcon@VAppView@@QAEHPBD@Z                              @55 NONAME
?drawMenu@VAppView@@QAEXXZ                                   @56 NONAME
?isIconic@VAppView@@QAEHXZ                                   @57 NONAME
?iconized@VAppView@@UAEHHH@Z                                 @58 NONAME
?rscMenu@VAppView@@QAEXPBDPAHPAP8VObject@@AEHXZPAV2@@Z       @59 NONAME
?show@VAppView@@QAEXABVVStyle@@@Z                            @60 NONAME
?replacePopup@VAppView@@QAEXPAVVObject@@H@Z                  @61 NONAME
?insertPopup@VAppView@@QAEXPAVVObject@@H@Z                   @62 NONAME
?setAppIcon@VAppView@@QAEHPAVVIcon@@@Z                       @63 NONAME
?closeApp@VAppView@@QAEHPAVVMenuItem@@@Z                     @64 NONAME
?displayPrompt@VAppView@@UAEHPAVVString@@@Z                  @65 NONAME
?isTopLevel@VAppView@@UBEHXZ                                 @66 NONAME
?endModal@VAppView@@QAEXXZ                                   @67 NONAME
?modal@VAppView@@QAEXXZ                                      @68 NONAME
?getSystemBorderSize@VAppView@@UBEXPAH0@Z                    @69 NONAME
?addMenu@VAppView@@QAEXPAVVMenu@@@Z                          @70 NONAME
?setMenuBar@VAppView@@QAEXPAVVMenu@@@Z                       @71 NONAME
?removeMenu@VAppView@@QAEXPAVVMenu@@@Z                       @72 NONAME
?putTo@VAppView@@UAEXAAVVArchiver@@@Z                        @73 NONAME
?putTo@VAppView@@IAEXAAVVArchiver@@H@Z                       @74 NONAME
?getFrom@VAppView@@UAEXAAVVArchiver@@@Z                      @75 NONAME
?getFrom@VAppView@@UAEXAAVVArchiver@@PAVVObject@@H@Z         @76 NONAME
?realize@VAppView@@UAEXPAVVWindow@@@Z                        @77 NONAME
?VArcVArc@@YAPAXXZ                                           @78 NONAME
?iam@VArc@@UAEPAVVClass@@XZ                                  @79 NONAME
??0VArc@@QAE@XZ                                              @80 NONAME
??0VArc@@QAE@W4RectOpts@@HHHHMMW4AngleType@0@@Z              @81 NONAME
?setAngles@VArc@@QAEXMMW4AngleType@1@@Z                      @82 NONAME
?getAngles@VArc@@QAEXPAM0W4AngleType@1@@Z                    @83 NONAME
?getIntersection@VArc@@IAEHHHMPAH0@Z                         @84 NONAME
?makePolygon@VArc@@IAEXXZ                                    @85 NONAME
?getHndl@VArc@@MAEPAUHRGN__@@XZ                              @86 NONAME
?fill@VArc@@MAEXPAVVPort@@@Z                                 @87 NONAME
?move@VArc@@UAEHHH@Z                                         @88 NONAME
?inset@VArc@@QAEHHH@Z                                        @89 NONAME
?VArchiverVArchiver@@YAPAXXZ                                 @90 NONAME
?iam@VArchiver@@UAEPAVVClass@@XZ                             @91 NONAME
??0VArchiver@@QAE@H@Z                                        @92 NONAME
??0VArchiver@@QAE@ABVVString@@H@Z                            @93 NONAME
??1VArchiver@@UAE@XZ                                         @94 NONAME
?init@VArchiver@@IAEXABVVString@@H@Z                         @95 NONAME
?close@VArchiver@@UAEXXZ                                     @96 NONAME
?closeSets@VArchiver@@IAEXXZ                                 @97 NONAME
?rewind@VArchiver@@UAEXXZ                                    @98 NONAME
?open@VArchiver@@UAEHH@Z                                     @99 NONAME
?open@VArchiver@@UAEHHABVVString@@@Z                         @100 NONAME
?getObject@VArchiver@@UAEPAVVObject@@PAV2@@Z                 @101 NONAME
?getObject@VArchiver@@UAEPAVVObject@@PAV2@0H@Z               @102 NONAME
?putObject@VArchiver@@UAEHPAVVObject@@H@Z                    @103 NONAME
?get@VArchiver@@UAEXAAJ@Z                                    @104 NONAME
?get@VArchiver@@UAEXAAN@Z                                    @105 NONAME
?get@VArchiver@@UAEXAAD@Z                                    @106 NONAME
?get@VArchiver@@UAEXAAPAD@Z                                  @107 NONAME
?get@VArchiver@@UAEXPADJ@Z                                   @108 NONAME
?get@VArchiver@@UAEXPAVVContainer@@J@Z                       @109 NONAME
?put@VArchiver@@UAEXJ@Z                                      @110 NONAME
?put@VArchiver@@UAEXN@Z                                      @111 NONAME
?put@VArchiver@@UAEXD@Z                                      @112 NONAME
?put@VArchiver@@UAEXPBD@Z                                    @113 NONAME
?put@VArchiver@@UAEXPBDJ@Z                                   @114 NONAME
?put@VArchiver@@UAEXPAVVContainer@@J@Z                       @115 NONAME
?putSelf@VArchiver@@UAEHAAVVObject@@P6AX0AAV1@P81@AEJXZP81@AEJJ@Z@Z@Z @116 NONAME
?getSelf@VArchiver@@UAEPAVVObject@@AAV2@P6AX0AAV1@P81@AEJXZP81@AEJJ@Z@Z@Z @117 NONAME
?objAt@VArchiver@@MAEJJ@Z                                    @118 NONAME
?objAt@VArchiver@@MAEJXZ                                     @119 NONAME
?getMemoryArchiveBuffer@VArchiver@@QAEHAAPBDAAK@Z            @120 NONAME
?abort@VArchiver@@QAEXW4AbortReason@1@PBD@Z                  @121 NONAME
?indxOf@VArchiver@@AAEJPAVVCollection@@PAVVObject@@@Z        @122 NONAME
?objAt@VArchiver@@AAEPAVVObject@@PAVVCollection@@J@Z         @123 NONAME
?addObj@VArchiver@@AAEHPAVVCollection@@PAVVObject@@@Z        @124 NONAME
?addIndexedObj@VArchiver@@AAEHPAVVCollection@@PAVVObject@@AAJ@Z @125 NONAME
?openSets@VArchiver@@IAEHH@Z                                 @126 NONAME
?write@VArchiver@@UAEJPBDJ@Z                                 @127 NONAME
?read@VArchiver@@UAEJPADJ@Z                                  @128 NONAME
?putch@VArchiver@@UAEHD@Z                                    @129 NONAME
?getch@VArchiver@@UAEDXZ                                     @130 NONAME
?putLine@VArchiver@@UAEJPBD@Z                                @131 NONAME
?getTrimLine@VArchiver@@UAEJPADJ@Z                           @132 NONAME
?beginWrite@VArchiver@@UAEXXZ                                @133 NONAME
?endWrite@VArchiver@@UAEXXZ                                  @134 NONAME
?makeAscii@VArchiver@@IAEHPBDHAAVVStream@@@Z                 @135 NONAME
?putObjectWithCount@VArchiver@@QAEHPAVVObject@@H@Z           @136 NONAME
?getObjectWithCount@VArchiver@@QAEPAVVObject@@PAV2@0HPAK@Z   @137 NONAME
?getObjectMemoryWithCount@VArchiver@@QAEPADPAK@Z             @138 NONAME
?skipObjectWithCount@VArchiver@@QAEKPAVVObject@@@Z           @139 NONAME
?archiveTagAbortCheck@@YA?AW4AbortReason@VArchiver@@JJ@Z     @140 NONAME
?VAssocVAssoc@@YAPAXXZ                                       @141 NONAME
?iam@VAssoc@@UAEPAVVClass@@XZ                                @142 NONAME
??0VAssoc@@QAE@XZ                                            @143 NONAME
?hash@VAssoc@@UBEJXZ                                         @144 NONAME
?isEqual@VAssoc@@UBEHPAVVObject@@@Z                          @145 NONAME
?putTo@VAssoc@@UAEXAAVVArchiver@@@Z                          @146 NONAME
?getFrom@VAssoc@@UAEXAAVVArchiver@@@Z                        @147 NONAME
?getFrom@VAssoc@@UAEXAAVVArchiver@@PAVVObject@@H@Z           @148 NONAME
??0VAssoc@@QAE@PAVVObject@@0@Z                               @149 NONAME
??0VAssoc@@QAE@ABV0@@Z                                       @150 NONAME
??4VAssoc@@QAEAAV0@ABV0@@Z                                   @151 NONAME
?copyFrom@VAssoc@@UAEHPAVVObject@@@Z                         @152 NONAME
??0VAtom@@QAE@I@Z                                            @153 NONAME
??0VAtom@@QAE@PBD@Z                                          @154 NONAME
??1VAtom@@QAE@XZ                                             @155 NONAME
??7VAtom@@QAEXXZ                                             @156 NONAME
??BVAtom@@QAEPADXZ                                           @157 NONAME
??0VAttach@@QAE@XZ                                           @158 NONAME
??1VAttach@@QAE@XZ                                           @159 NONAME
?setAttach@VAttach@@QAEXW4Side@1@W4Type@1@HPAVVWindow@@@Z    @160 NONAME
??0VBlockFileDir@@QAE@XZ                                     @161 NONAME
??1VBlockFileDir@@QAE@XZ                                     @162 NONAME
?sortBy@VBlockFileDir@@AAEXP8VObject@@AEHXZ@Z                @163 NONAME
?getSortedList@VBlockFileDir@@QAEPAVVOrdCollect@@XZ          @164 NONAME
?contains@VBlockFileDir@@QBEHABVVBlockFileDirItem@@AAJ@Z     @165 NONAME
?VBlockFileDirItemVBlockFileDirItem@@YAPAXXZ                 @166 NONAME
?iam@VBlockFileDirItem@@UAEPAVVClass@@XZ                     @167 NONAME
??0VBlockFileDirItem@@QAE@XZ                                 @168 NONAME
??0VBlockFileDirItem@@QAE@ABVVString@@0J@Z                   @169 NONAME
??0VBlockFileDirItem@@QAE@ABV0@@Z                            @170 NONAME
??1VBlockFileDirItem@@UAE@XZ                                 @171 NONAME
?isEqual@VBlockFileDirItem@@UBEHPAVVObject@@@Z               @172 NONAME
?compare@VBlockFileDirItem@@UBEHPAVVObject@@@Z               @173 NONAME
?VBitBltrVBitBltr@@YAPAXXZ                                   @174 NONAME
?iam@VBitBltr@@UAEPAVVClass@@XZ                              @175 NONAME
??0VBitBltr@@QAE@XZ                                          @176 NONAME
??0VBitBltr@@QAE@PAVVDisplay@@0@Z                            @177 NONAME
?bitbltr@VBitBltr@@QAEXHHHHHHW4RasterRule@@@Z                @178 NONAME
?bitbltr@VBitBltr@@QAEXHHW4RasterRule@@@Z                    @179 NONAME
?bitbltr@VBitBltr@@QAEXHHHHHHHHW4RasterRule@@@Z              @180 NONAME
?source@VBitBltr@@QAEXW4RectOpts@@HHHH@Z                     @181 NONAME
?source@VBitBltr@@QAEXPAVVRectangle@@@Z                      @182 NONAME
?destruct@VPaletteData@VPalettes@@IAEXXZ                     @183 NONAME
?sharePalette@VPalettes@@SAXPAUHPALETTE__@@@Z                @184 NONAME
?findPalette@VPalettes@@KAPAVVPaletteData@1@PAUHPALETTE__@@@Z @185 NONAME
?createPalette@VPalettes@@SAPAUHPALETTE__@@PAUtagLOGPALETTE@@@Z @186 NONAME
?deletePalette@VPalettes@@SAXPAUHPALETTE__@@@Z               @187 NONAME
?deleteAllPalettes@VPalettes@@KAXXZ                          @188 NONAME
??1VPalettes@@QAE@XZ                                         @189 NONAME
??0FileOrArchive@@QAE@PBD@Z                                  @190 NONAME
??0FileOrArchive@@QAE@PAVVArchiver@@@Z                       @191 NONAME
?openForRead@FileOrArchive@@QAEHXZ                           @192 NONAME
?openForWrite@FileOrArchive@@QAEHXZ                          @193 NONAME
?read@FileOrArchive@@QAEHPADJ@Z                              @194 NONAME
?write@FileOrArchive@@QAEHPADJ@Z                             @195 NONAME
?close@FileOrArchive@@QAEXXZ                                 @196 NONAME
?getPosition@FileOrArchive@@QBEJXZ                           @197 NONAME
?setPosition@FileOrArchive@@QAEHJ@Z                          @198 NONAME
?shiftPosition@FileOrArchive@@QAEHJ@Z                        @199 NONAME
?isArchive@FileOrArchive@@QBEHXZ                             @200 NONAME
?isFile@FileOrArchive@@QBEHXZ                                @201 NONAME
?VBitMapVBitMap@@YAPAXXZ                                     @202 NONAME
?iam@VBitMap@@UAEPAVVClass@@XZ                               @203 NONAME
??0VBitMap@@QAE@XZ                                           @204 NONAME
??0VBitMap@@QAE@PBD@Z                                        @205 NONAME
??0VBitMap@@QAE@HHH@Z                                        @206 NONAME
??0VBitMap@@QAE@HHPAVVDisplay@@@Z                            @207 NONAME
??0VBitMap@@QAE@PAX@Z                                        @208 NONAME
??1VBitMap@@UAE@XZ                                           @209 NONAME
?initialize@VBitMap@@IAEXXZ                                  @210 NONAME
?clean@VBitMap@@IAEXXZ                                       @211 NONAME
?loadFile@VBitMap@@QAEHPBD@Z                                 @212 NONAME
?loadFile@VBitMap@@IAEHAAVFileOrArchive@@@Z                  @213 NONAME
?saveFile@VBitMap@@QAEHPBD@Z                                 @214 NONAME
?saveFile@VBitMap@@QAEHPBDFJ@Z                               @215 NONAME
?saveFile@VBitMap@@IAEHAAVFileOrArchive@@FJ@Z                @216 NONAME
?getBitmap@VBitMap@@QBEPAUHBITMAP__@@XZ                      @217 NONAME
?getDIB@VBitMap@@QBEPAXFJ@Z                                  @218 NONAME
?getHndl@VBitMap@@UAEPAUHDC__@@XZ                            @219 NONAME
?ungetHndl@VBitMap@@UAEXXZ                                   @220 NONAME
?sizeOfImage@VBitMap@@UAEXPAH0@Z                             @221 NONAME
?depthOfImage@VBitMap@@UAEHXZ                                @222 NONAME
?getByteDim@VBitMap@@QBEXPAH0@Z                              @223 NONAME
?planes@VBitMap@@QBEHXZ                                      @224 NONAME
?getBitCount@VBitMap@@IBEHXZ                                 @225 NONAME
?getCompression@VBitMap@@IBEJXZ                              @226 NONAME
?readPixel@VBitMap@@QBE?AVVColor@@ABVVLocation@@@Z           @227 NONAME
?readPixelRow@VBitMap@@QBEXABVVLocation@@PAVVColor@@H@Z      @228 NONAME
?writePixel@VBitMap@@QAE?AVVColor@@ABVVLocation@@ABV2@@Z     @229 NONAME
?eraseBlack@VBitMap@@QAEXXZ                                  @230 NONAME
?eraseWhite@VBitMap@@QAEXXZ                                  @231 NONAME
?setCompObj@VBitMap@@QAEXPAVVDisplay@@@Z                     @232 NONAME
?setBitmap@VBitMap@@QAEXPAUHBITMAP__@@@Z                     @233 NONAME
?bitblt@VBitMap@@QAEXPAVVDisplay@@HHJ@Z                      @234 NONAME
?bitblt@VBitMap@@QAEXPAVVDisplay@@HHHHHHJ@Z                  @235 NONAME
?bitblt@VBitMap@@QAEXPAVVDisplay@@HHHHHHHHJ@Z                @236 NONAME
?canPasteFromClipboard@VBitMap@@SAHXZ                        @237 NONAME
?pasteFromClipboard@VBitMap@@QAEHXZ                          @238 NONAME
?copyToClipboard@VBitMap@@QAEHXZ                             @239 NONAME
?putTo@VBitMap@@UAEXAAVVArchiver@@@Z                         @240 NONAME
?getFrom@VBitMap@@UAEXAAVVArchiver@@@Z                       @241 NONAME
?getFrom@VBitMap@@UAEXAAVVArchiver@@PAVVObject@@H@Z          @242 NONAME
?VBitMapViewVBitMapView@@YAPAXXZ                             @243 NONAME
?iam@VBitMapView@@UAEPAVVClass@@XZ                           @244 NONAME
??0VBitMapView@@QAE@XZ                                       @245 NONAME
??0VBitMapView@@QAE@ABVVFrame@@PAVVWindow@@ABVVStyle@@@Z     @246 NONAME
??0VBitMapView@@QAE@ABVVString@@ABVVFrame@@PAVVWindow@@ABVVStyle@@@Z @247 NONAME
??1VBitMapView@@UAE@XZ                                       @248 NONAME
?setBitMap@VBitMapView@@QAEXPAVVBitMap@@@Z                   @249 NONAME
?resized@VBitMapView@@UAEHHH@Z                               @250 NONAME
?paint@VBitMapView@@UAEHXZ                                   @251 NONAME
?erased@VBitMapView@@UAEHXZ                                  @252 NONAME
?scrollBitMap@VBitMapView@@AAEXHH@Z                          @253 NONAME
?updateScrollBars@VBitMapView@@AAEXXZ                        @254 NONAME
?vtScrollBar@VBitMapView@@AAEHH@Z                            @255 NONAME
?hzScrollBar@VBitMapView@@AAEHH@Z                            @256 NONAME
?getMinSize@VBitMapView@@UAEXAAF0@Z                          @257 NONAME
?getPalette@VBitMapView@@UAEPAUHPALETTE__@@XZ                @258 NONAME
?putTo@VBitMapView@@UAEXAAVVArchiver@@@Z                     @259 NONAME
?putTo@VBitMapView@@IAEXAAVVArchiver@@H@Z                    @260 NONAME
?getFrom@VBitMapView@@UAEXAAVVArchiver@@@Z                   @261 NONAME
?getFrom@VBitMapView@@UAEXAAVVArchiver@@PAVVObject@@H@Z      @262 NONAME
?realize@VBitMapView@@UAEXPAVVWindow@@@Z                     @263 NONAME
??0VBitSet@@QAE@XZ                                           @264 NONAME
??0VBitSet@@QAE@ABV0@@Z                                      @265 NONAME
??0VBitSet@@QAE@H@Z                                          @266 NONAME
?set@VBitSet@@UAEXH@Z                                        @267 NONAME
?reset@VBitSet@@UAEXH@Z                                      @268 NONAME
??8VBitSet@@QBEHABV0@@Z                                      @269 NONAME
?add@VBitSet@@QAEXABV1@@Z                                    @270 NONAME
?remove@VBitSet@@QAEXABV1@@Z                                 @271 NONAME
?set@VBitSet@@QAEXABV1@@Z                                    @272 NONAME
?clear@VBitSet@@QAEXXZ                                       @273 NONAME
?isEmpty@VBitSet@@QBEHXZ                                     @274 NONAME
?contains@VBitSet@@UBEHABV1@@Z                               @275 NONAME
?getFrom@VBitSet@@UAEXAAVVArchiver@@@Z                       @276 NONAME
?putTo@VBitSet@@UAEXAAVVArchiver@@@Z                         @277 NONAME
?VBlockContextVBlockContext@@YAPAXXZ                         @278 NONAME
?iam@VBlockContext@@UAEPAVVClass@@XZ                         @279 NONAME
??0VBlockContext@@QAE@XZ                                     @280 NONAME
??0VBlockContext@@QAE@JJJJJH@Z                               @281 NONAME
??1VBlockContext@@UAE@XZ                                     @282 NONAME
?VBlockFileVBlockFile@@YAPAXXZ                               @283 NONAME
?iam@VBlockFile@@UAEPAVVClass@@XZ                            @284 NONAME
??0VBlockFile@@QAE@XZ                                        @285 NONAME
??0VBlockFile@@QAE@ABVVString@@@Z                            @286 NONAME
??0VBlockFile@@QAE@W4BlockAccessType@0@@Z                    @287 NONAME
??1VBlockFile@@UAE@XZ                                        @288 NONAME
?init@VBlockFile@@IAEXXZ                                     @289 NONAME
?open@VBlockFile@@QAEHW4BlockAccessType@1@ABVVString@@@Z     @290 NONAME
?open@VBlockFile@@QAEHW4BlockAccessType@1@@Z                 @291 NONAME
?updateDirectory@VBlockFile@@QAEHXZ                          @292 NONAME
?close@VBlockFile@@QAEXXZ                                    @293 NONAME
?find@VBlockFile@@QAEHABVVBlockFileDirItem@@@Z               @294 NONAME
?findEnd@VBlockFile@@QAEHABVVBlockFileDirItem@@@Z            @295 NONAME
?findDirectory@VBlockFile@@IAEHXZ                            @296 NONAME
?remove@VBlockFile@@QAEHABVVBlockFileDirItem@@@Z             @297 NONAME
?read@VBlockFile@@QAEJPADJ@Z                                 @298 NONAME
?getch@VBlockFile@@QAEDXZ                                    @299 NONAME
?gettrim@VBlockFile@@QAEJPADJ@Z                              @300 NONAME
?gets@VBlockFile@@QAEJPADJ@Z                                 @301 NONAME
?getln@VBlockFile@@QAEJPADJ@Z                                @302 NONAME
?getln@VBlockFile@@IAEJPADJD@Z                               @303 NONAME
?write@VBlockFile@@QAEJPBDJ@Z                                @304 NONAME
?putch@VBlockFile@@QAEHD@Z                                   @305 NONAME
?putln@VBlockFile@@QAEJPBD@Z                                 @306 NONAME
?getCurrentDirItem@VBlockFile@@QAEPBVVBlockFileDirItem@@XZ   @307 NONAME
?writeDirectory@VBlockFile@@IAEHXZ                           @308 NONAME
?readDirectory@VBlockFile@@IAEHXZ                            @309 NONAME
?push@VBlockFile@@AAEHXZ                                     @310 NONAME
?pop@VBlockFile@@AAEHXZ                                      @311 NONAME
?atBlockData@VBlockFile@@AAEHJ@Z                             @312 NONAME
?padBlock@VBlockFile@@AAEHJ@Z                                @313 NONAME
?deleteBlock@VBlockFile@@AAEHJ@Z                             @314 NONAME
?newBlock@VBlockFile@@AAEJXZ                                 @315 NONAME
?setRevisionNumber@VBlockFile@@QAEXJ@Z                       @316 NONAME
?setComment@VBlockFile@@QAEXABVVString@@@Z                   @317 NONAME
?writeFileHeader@VBlockFile@@AAEHXZ                          @318 NONAME
?readFileHeader@VBlockFile@@AAEHXZ                           @319 NONAME
?writeBlockHeader@VBlockFile@@AAEHJJJ@Z                      @320 NONAME
?readBlockHeader@VBlockFile@@AAEHJPAJ0@Z                     @321 NONAME
?autoUpdate@VBlockFile@@QAEXH@Z                              @322 NONAME
?VBitMapButtonVBitMapButton@@YAPAXXZ                         @323 NONAME
?iam@VBitMapButton@@UAEPAVVClass@@XZ                         @324 NONAME
??0VBitMapButton@@QAE@XZ                                     @325 NONAME
??0VBitMapButton@@QAE@ABVVFrame@@PAVVWindow@@ABVVStyle@@@Z   @326 NONAME
??0VBitMapButton@@QAE@ABVVString@@ABVVFrame@@PAVVWindow@@ABVVStyle@@@Z @327 NONAME
??0VBitMapButton@@QAE@VVRatio@@0PAVVBitMap@@FPAVVWindow@@ABVVStyle@@FF@Z @328 NONAME
??0VBitMapButton@@QAE@VVRatio@@0ABVVString@@FPAVVWindow@@ABVVStyle@@FF@Z @329 NONAME
?init@VBitMapButton@@AAEXPAH0PAVVBitMap@@FF@Z                @330 NONAME
??1VBitMapButton@@UAE@XZ                                     @331 NONAME
?cleanUp@VBitMapButton@@AAEXXZ                               @332 NONAME
?setStartSequence@VBitMapButton@@QAEXF@Z                     @333 NONAME
?setBitMap@VBitMapButton@@QAEXPAVVBitMap@@FF@Z               @334 NONAME
?setBitMap@VBitMapButton@@QAEXABVVString@@FF@Z               @335 NONAME
?getInfo@VBitMapButton@@EAEXAAVVWinInfo@@@Z                  @336 NONAME
?drawDefFrame@VBitMapButton@@AAEXXZ                          @337 NONAME
?paint@VBitMapButton@@UAEHXZ                                 @338 NONAME
?erased@VBitMapButton@@UAEHXZ                                @339 NONAME
?hilite@VBitMapButton@@UAEXH@Z                               @340 NONAME
?isHilited@VBitMapButton@@UAEHXZ                             @341 NONAME
?setDefault@VBitMapButton@@UAEXH@Z                           @342 NONAME
?displayPrompt@VBitMapButton@@QAEHPAVVString@@@Z             @343 NONAME
?getPalette@VBitMapButton@@MAEPAUHPALETTE__@@XZ              @344 NONAME
?mouseEnter@VBitMapButton@@UAEHH@Z                           @345 NONAME
?mouseExit@VBitMapButton@@UAEHH@Z                            @346 NONAME
?putTo@VBitMapButton@@UAEXAAVVArchiver@@@Z                   @347 NONAME
?putTo@VBitMapButton@@QAEXAAVVArchiver@@H@Z                  @348 NONAME
?getFrom@VBitMapButton@@UAEXAAVVArchiver@@@Z                 @349 NONAME
?getFrom@VBitMapButton@@UAEXAAVVArchiver@@PAVVObject@@H@Z    @350 NONAME
?realize@VBitMapButton@@UAEXPAVVWindow@@@Z                   @351 NONAME
?loadResources@VBitMapButton@@UAEHAAVVRscArchiver@@@Z        @352 NONAME
?VBoolVBool@@YAPAXXZ                                         @353 NONAME
?iam@VBool@@UAEPAVVClass@@XZ                                 @354 NONAME
??0VBool@@QAE@XZ                                             @355 NONAME
??0VBool@@QAE@H@Z                                            @356 NONAME
??0VBool@@QAE@ABV0@@Z                                        @357 NONAME
?copyTo@VBool@@UAEHPAVVObject@@@Z                            @358 NONAME
?copyFrom@VBool@@UAEHPAVVObject@@@Z                          @359 NONAME
??4VBool@@QAEAAV0@ABV0@@Z                                    @360 NONAME
?putTo@VBool@@UAEXAAVVArchiver@@@Z                           @361 NONAME
?getFrom@VBool@@UAEXAAVVArchiver@@@Z                         @362 NONAME
?getFrom@VBool@@UAEXAAVVArchiver@@PAVVObject@@H@Z            @363 NONAME
?VBrushVBrush@@YAPAXXZ                                       @364 NONAME
?iam@VBrush@@UAEPAVVClass@@XZ                                @365 NONAME
??0VBrush@@QAE@W4FillPattern@@VVColor@@1@Z                   @366 NONAME
??0VBrush@@QAE@XZ                                            @367 NONAME
??0VBrush@@QAE@VVColor@@@Z                                   @368 NONAME
??1VBrush@@UAE@XZ                                            @369 NONAME
?make@VBrush@@IAEHXZ                                         @370 NONAME
?reset@VBrush@@UAEXXZ                                        @371 NONAME
?foreground@VBrush@@QAEXABVVColor@@@Z                        @372 NONAME
?background@VBrush@@QAEXABVVColor@@@Z                        @373 NONAME
?pattern@VBrush@@QAEXW4FillPattern@@@Z                       @374 NONAME
?pattern@VBrush@@QAE?AW4FillPattern@@XZ                      @375 NONAME
?bind@VBrush@@IAEXPAVVObject@@H@Z                            @376 NONAME
?VBrushInfoVBrushInfo@@YAPAXXZ                               @377 NONAME
?iam@VBrushInfo@@UAEPAVVClass@@XZ                            @378 NONAME
??0VBrushInfo@@QAE@XZ                                        @379 NONAME
??0VBrushInfo@@QAE@PBVVBrush@@@Z                             @380 NONAME
?init@VBrushInfo@@AAEXPBVVBrush@@@Z                          @381 NONAME
??1VBrushInfo@@UAE@XZ                                        @382 NONAME
?putTo@VBrushInfo@@UAEXAAVVArchiver@@@Z                      @383 NONAME
?getFrom@VBrushInfo@@UAEXAAVVArchiver@@@Z                    @384 NONAME
?getFrom@VBrushInfo@@UAEXAAVVArchiver@@PAVVObject@@H@Z       @385 NONAME
?VButtonGroupVButtonGroup@@YAPAXXZ                           @386 NONAME
?iam@VButtonGroup@@UAEPAVVClass@@XZ                          @387 NONAME
??0VButtonGroup@@QAE@XZ                                      @388 NONAME
??0VButtonGroup@@QAE@IPAVVWindow@@@Z                         @389 NONAME
??0VButtonGroup@@QAE@PAVVClass@@@Z                           @390 NONAME
??0VButtonGroup@@QAE@ABVVFrame@@PAVVWindow@@PADPAVVClass@@@Z @391 NONAME
??0VButtonGroup@@QAE@ABVVString@@ABVVFrame@@PAVVWindow@@PADPAVVClass@@@Z @392 NONAME
??1VButtonGroup@@UAE@XZ                                      @393 NONAME
?enableBool@VButtonGroup@@UAEXH@Z                            @394 NONAME
?enableAll@VButtonGroup@@UAEHH@Z                             @395 NONAME
?addButtons@VButtonGroup@@QAEXPAPADPAVVObject@@HPAP82@AEHXZHHHH@Z @396 NONAME
?addButtons@VButtonGroup@@QAEXAAVVOrdCollect@@PAVVObject@@P83@AEHXZHHHH@Z @397 NONAME
?addButtons@VButtonGroup@@QAEXPAPADPAVVObject@@HPAP82@AEHXZHHHHHH@Z @398 NONAME
?addButtons@VButtonGroup@@QAEXAAVVOrdCollect@@PAVVObject@@P83@AEHXZHHHHHH@Z @399 NONAME
?addButtons@VButtonGroup@@QAEXPAPADPAVVObject@@HPAP82@AEHXZMMMMMM@Z @400 NONAME
?addButtons@VButtonGroup@@QAEXAAVVOrdCollect@@PAVVObject@@P83@AEHXZMMMMMM@Z @401 NONAME
?enableAt@VButtonGroup@@UAEHHH@Z                             @402 NONAME
?putTo@VButtonGroup@@UAEXAAVVArchiver@@@Z                    @403 NONAME
?putTo@VButtonGroup@@IAEXAAVVArchiver@@H@Z                   @404 NONAME
?getFrom@VButtonGroup@@UAEXAAVVArchiver@@@Z                  @405 NONAME
?getFrom@VButtonGroup@@UAEXAAVVArchiver@@PAVVObject@@H@Z     @406 NONAME
?realize@VButtonGroup@@UAEXPAVVWindow@@@Z                    @407 NONAME
?VButtonVButton@@YAPAXXZ                                     @408 NONAME
?iam@VButton@@UAEPAVVClass@@XZ                               @409 NONAME
??0VButton@@QAE@XZ                                           @410 NONAME
??1VButton@@UAE@XZ                                           @411 NONAME
?getInfo@VButton@@MAEXAAVVWinInfo@@@Z                        @412 NONAME
?getCtlColor@VButton@@MAEIXZ                                 @413 NONAME
?getMinSize@VButton@@MAEXAAF0@Z                              @414 NONAME
?clicked@VButton@@UAEHXZ                                     @415 NONAME
??0VButton@@QAE@ABVVFrame@@PAVVWindow@@ABVVStyle@@@Z         @416 NONAME
??0VButton@@QAE@ABVVString@@ABVVFrame@@PAVVWindow@@ABVVStyle@@@Z @417 NONAME
?enterHit@VButton@@UAEHXZ                                    @418 NONAME
?getMin@VButton@@QAEXPAH0@Z                                  @419 NONAME
?paint@VButton@@UAEHXZ                                       @420 NONAME
?notify@VButton@@MAEHH@Z                                     @421 NONAME
?enable@VButton@@UAEHH@Z                                     @422 NONAME
?enableBool@VButton@@UAEXH@Z                                 @423 NONAME
?givenFocus@VButton@@UAEHXZ                                  @424 NONAME
?clearFocus@VButton@@UAEHXZ                                  @425 NONAME
?toggle@VButton@@UAEHXZ                                      @426 NONAME
?uponClick@VButton@@QAEXPAVVObject@@P82@AEHXZ@Z              @427 NONAME
??0VButton@@QAE@IPAVVWindow@@@Z                              @428 NONAME
?winType@VButton@@UAE?AW4WinType@@XZ                         @429 NONAME
?getPreferredSize@VButton@@MBEXPAH0@Z                        @430 NONAME
?putTo@VButton@@UAEXAAVVArchiver@@@Z                         @431 NONAME
?putTo@VButton@@IAEXAAVVArchiver@@H@Z                        @432 NONAME
?getFrom@VButton@@UAEXAAVVArchiver@@@Z                       @433 NONAME
?getFrom@VButton@@UAEXAAVVArchiver@@PAVVObject@@H@Z          @434 NONAME
?realize@VButton@@UAEXPAVVWindow@@@Z                         @435 NONAME
??0VCallback@@QAE@XZ                                         @436 NONAME
??0VCallback@@QAE@PBD0P8VObject@@AEHXZJW4AutoRegister@0@@Z   @437 NONAME
??1VCallback@@QAE@XZ                                         @438 NONAME
?set@VCallback@@QAEHPBD0P8VObject@@AEHXZJ@Z                  @439 NONAME
?setName@VCallback@@AAEXAAPADAAPAXPBD@Z                      @440 NONAME
?VCheckBoxVCheckBox@@YAPAXXZ                                 @441 NONAME
?iam@VCheckBox@@UAEPAVVClass@@XZ                             @442 NONAME
??0VCheckBox@@QAE@XZ                                         @443 NONAME
??0VCheckBox@@QAE@IPAVVWindow@@@Z                            @444 NONAME
??0VCheckBox@@QAE@VVRatio@@0PBDPAVVWindow@@ABVVStyle@@@Z     @445 NONAME
??0VCheckBox@@QAE@ABVVFrame@@PAVVWindow@@ABVVStyle@@PBD@Z    @446 NONAME
??0VCheckBox@@QAE@ABVVString@@ABVVFrame@@PAVVWindow@@ABVVStyle@@PBD@Z @447 NONAME
??1VCheckBox@@UAE@XZ                                         @448 NONAME
?sizeOf@VCheckBox@@UAEXPAH0@Z                                @449 NONAME
?getInfo@VCheckBox@@MAEXAAVVWinInfo@@@Z                      @450 NONAME
?notify@VCheckBox@@MAEHH@Z                                   @451 NONAME
?checked@VCheckBox@@UAEHXZ                                   @452 NONAME
?check@VCheckBox@@UAEXH@Z                                    @453 NONAME
?givenFocus@VCheckBox@@UAEHXZ                                @454 NONAME
?clearFocus@VCheckBox@@UAEHXZ                                @455 NONAME
?toggle@VCheckBox@@UAEHXZ                                    @456 NONAME
?clicked@VCheckBox@@UAEHXZ                                   @457 NONAME
?getPreferredSize@VCheckBox@@UBEXPAH0@Z                      @458 NONAME
?getSystemBorderSize@VCheckBox@@UBEXPAH0@Z                   @459 NONAME
?getCtlColor@VCheckBox@@MAEIXZ                               @460 NONAME
?putTo@VCheckBox@@UAEXAAVVArchiver@@@Z                       @461 NONAME
?putTo@VCheckBox@@QAEXAAVVArchiver@@H@Z                      @462 NONAME
?getFrom@VCheckBox@@UAEXAAVVArchiver@@@Z                     @463 NONAME
?getFrom@VCheckBox@@UAEXAAVVArchiver@@PAVVObject@@H@Z        @464 NONAME
?realize@VCheckBox@@UAEXPAVVWindow@@@Z                       @465 NONAME
??0VClass@@QAE@PAPAV0@PBD@Z                                  @466 NONAME
??0VClass@@QAE@PAPAV0@PBDP6APAXXZH0@Z                        @467 NONAME
??0VClass@@QAE@PAPAV0@PBDP6APAXXZH00@Z                       @468 NONAME
??0VClass@@QAE@PAPAV0@PBDP6APAXXZH000@Z                      @469 NONAME
??1VClass@@QAE@XZ                                            @470 NONAME
?construct@VClass@@SAPAXPBD@Z                                @471 NONAME
?of@VClass@@SAPAV1@PBD@Z                                     @472 NONAME
?setClass@VClass@@IAEXPAPAV1@PBDP6APAXXZH@Z                  @473 NONAME
?asa@VClass@@QAEPAXPADPAV1@H@Z                               @474 NONAME
?isa@VClass@@QAEHPAV1@@Z                                     @475 NONAME
?getprivate@VClass@@QAEHXZ                                   @476 NONAME
?getBase@VClass@@QBEPAV1@H@Z                                 @477 NONAME
?VClassTableVClassTable@@YAPAXXZ                             @478 NONAME
?iam@VClassTable@@UAEPAVVClass@@XZ                           @479 NONAME
??CVClassTable@@QAEPAV0@XZ                                   @480 NONAME
??0VClassTable@@QAE@XZ                                       @481 NONAME
?init@VClassTable@@IAEXXZ                                    @482 NONAME
??1VClassTable@@UAE@XZ                                       @483 NONAME
?of@VClassTable@@QAEPAVVClass@@PBD@Z                         @484 NONAME
?add@VClassTable@@QAEXPAVVClass@@@Z                          @485 NONAME
?remove@VClassTable@@QAEXPAVVClass@@@Z                       @486 NONAME
?VClipBoardVClipBoard@@YAPAXXZ                               @487 NONAME
?iam@VClipBoard@@UAEPAVVClass@@XZ                            @488 NONAME
??0VClipBoard@@QAE@XZ                                        @489 NONAME
??1VClipBoard@@UAE@XZ                                        @490 NONAME
?clear@VClipBoard@@QAEHXZ                                    @491 NONAME
?isEmpty@VClipBoard@@QAEHXZ                                  @492 NONAME
?contains@VClipBoard@@QAEHPAVVClass@@@Z                      @493 NONAME
?get@VClipBoard@@QAEPAVVObject@@PAV2@H@Z                     @494 NONAME
?put@VClipBoard@@QAEHPAVVObject@@@Z                          @495 NONAME
?VCallbackListVCallbackList@@YAPAXXZ                         @496 NONAME
?iam@VCallbackList@@UAEPAVVClass@@XZ                         @497 NONAME
??0VCallbackList@@QAE@XZ                                     @498 NONAME
??1VCallbackList@@UAE@XZ                                     @499 NONAME
?initTable@VCallbackList@@AAEXXZ                             @500 NONAME
?expandTo@VCallbackList@@AAEHH@Z                             @501 NONAME
?freeTable@VCallbackList@@AAEXXZ                             @502 NONAME
??CVCallbackList@@QAEPAV0@XZ                                 @503 NONAME
?getList@VCallbackList@@IAEPAUCallbackList@1@XZ              @504 NONAME
?getList@VCallbackList@@IAEPAUCallbackList@1@PAX@Z           @505 NONAME
?addGhostCallback@VCallbackList@@SAHPAVVCallback@@@Z         @506 NONAME
?removeGhostCallback@VCallbackList@@SAHPAVVCallback@@@Z      @507 NONAME
?addCallback@VCallbackList@@AAEHPAVVCallback@@H@Z            @508 NONAME
?removeCallback@VCallbackList@@AAEHPAVVCallback@@H@Z         @509 NONAME
?getCallbackList@VCallbackList@@SAPBVVCallback@@XZ           @510 NONAME
?getGhostCallbackList@VCallbackList@@SAPBVVCallback@@XZ      @511 NONAME
?findCallback@VCallbackList@@SAP8VObject@@AEHXZPBD0PAJ@Z     @512 NONAME
?findCallback@VCallbackList@@SAHP8VObject@@AEHXZAAPBD1J@Z    @513 NONAME
?findCallback@VCallbackList@@SAP8VObject@@AEHXZPBD0@Z        @514 NONAME
?findCallback@VCallbackList@@AAEPBVVCallback@@PBD0PAUCallbackList@1@H@Z @515 NONAME
?findClientForCallback@VCallbackList@@SAPAVVObject@@P82@AEHXZPAVVWindow@@@Z @516 NONAME
?getCallbackList@VCallbackList@@AAEPAVVCallback@@PAXH@Z      @517 NONAME
?exportCallback@VCallbackList@@QAEP8VObject@@AEHXZPBD0@Z     @518 NONAME
?VColorSchemeVColorScheme@@YAPAXXZ                           @519 NONAME
?iam@VColorScheme@@UAEPAVVClass@@XZ                          @520 NONAME
??0VColorScheme@@QAE@XZ                                      @521 NONAME
??0VColorScheme@@QAE@ABVVColor@@@Z                           @522 NONAME
??0VColorScheme@@QAE@PAVVWindow@@@Z                          @523 NONAME
??0VColorScheme@@QAE@PAVVClass@@@Z                           @524 NONAME
??0VColorScheme@@QAE@ABV0@@Z                                 @525 NONAME
??4VColorScheme@@QAEAAV0@ABV0@@Z                             @526 NONAME
?set@VColorScheme@@QAEXXZ                                    @527 NONAME
?set@VColorScheme@@QAEXPAVVWindow@@@Z                        @528 NONAME
?set@VColorScheme@@QAEXPAVVClass@@@Z                         @529 NONAME
?set@VColorScheme@@QAEXABVVColor@@@Z                         @530 NONAME
?setFlatBackground@VColorScheme@@QAEXXZ                      @531 NONAME
?setShadedBackground@VColorScheme@@QAEXXZ                    @532 NONAME
?setFlatBackground@VColorScheme@@QAEXABVVColor@@@Z           @533 NONAME
?setShadedBackground@VColorScheme@@QAEXABVVColor@@@Z         @534 NONAME
?initialize@VColorScheme@@IAEXH@Z                            @535 NONAME
?reinitializeColorArray@VColorScheme@@IAEXXZ                 @536 NONAME
??1VColorScheme@@UAE@XZ                                      @537 NONAME
?getColor@VColorScheme@@QAEPAVVColor@@W4Color@1@@Z           @538 NONAME
?getColor@VColorScheme@@QAEHW4Color@1@AAF11@Z                @539 NONAME
?getColor@VColorScheme@@QAEHW4Color@1@AAVVColor@@@Z          @540 NONAME
?setColor@VColorScheme@@QAEXW4Color@1@AAVVColor@@@Z          @541 NONAME
?useNativeColorCalculation@VColorScheme@@QAEXH@Z             @542 NONAME
?usingNativeColorCalculation@VColorScheme@@QBEHXZ            @543 NONAME
?getFlatBackgroundColor@VColorScheme@@IAEHXZ                 @544 NONAME
?getFlatForegroundColor@VColorScheme@@IAEHXZ                 @545 NONAME
?getFlatBackgroundSelectColor@VColorScheme@@IAEHXZ           @546 NONAME
?getFlatForegroundSelectColor@VColorScheme@@IAEHXZ           @547 NONAME
?getShadedBackgroundColor@VColorScheme@@IAEHXZ               @548 NONAME
?getShadedForegroundColor@VColorScheme@@IAEHXZ               @549 NONAME
?getShadedBackgroundSelectColor@VColorScheme@@IAEHXZ         @550 NONAME
?getShadedForegroundSelectColor@VColorScheme@@IAEHXZ         @551 NONAME
?getShadedHighlightColor@VColorScheme@@IAEHXZ                @552 NONAME
?getShadedDarkHighlightColor@VColorScheme@@IAEHXZ            @553 NONAME
?getShadedShadowColor@VColorScheme@@IAEHXZ                   @554 NONAME
?getShadedDarkShadowColor@VColorScheme@@IAEHXZ               @555 NONAME
?getToolTipBackgroundColor@VColorScheme@@IAEHXZ              @556 NONAME
?getToolTipForegroundColor@VColorScheme@@IAEHXZ              @557 NONAME
?getTopActiveCaptionBackgroundColor@VColorScheme@@IAEHXZ     @558 NONAME
?getTopActiveCaptionForegroundColor@VColorScheme@@IAEHXZ     @559 NONAME
?getTopActiveFlatBackgroundColor@VColorScheme@@IAEHXZ        @560 NONAME
?getTopActiveFlatBorderColor@VColorScheme@@IAEHXZ            @561 NONAME
?getTopActiveShadedBackgroundColor@VColorScheme@@IAEHXZ      @562 NONAME
?getTopActiveShadedHighlightColor@VColorScheme@@IAEHXZ       @563 NONAME
?getTopActiveShadedShadowColor@VColorScheme@@IAEHXZ          @564 NONAME
?getTopInactiveCaptionBackgroundColor@VColorScheme@@IAEHXZ   @565 NONAME
?getTopInactiveCaptionForegroundColor@VColorScheme@@IAEHXZ   @566 NONAME
?getTopInactiveFlatBackgroundColor@VColorScheme@@IAEHXZ      @567 NONAME
?getTopInactiveFlatBorderColor@VColorScheme@@IAEHXZ          @568 NONAME
?getTopInactiveShadedBackgroundColor@VColorScheme@@IAEHXZ    @569 NONAME
?getTopInactiveShadedHighlightColor@VColorScheme@@IAEHXZ     @570 NONAME
?getTopInactiveShadedShadowColor@VColorScheme@@IAEHXZ        @571 NONAME
?getToolTipHighlightColor@VColorScheme@@IAEHXZ               @572 NONAME
?getToolTipShadowColor@VColorScheme@@IAEHXZ                  @573 NONAME
?systemColorsChanged@VColorScheme@@SAXXZ                     @574 NONAME
?system@VColorScheme@@SAAAV1@XZ                              @575 NONAME
?systemColor@VColorScheme@@SAAAVVColor@@W4Color@1@@Z         @576 NONAME
?systemBrush@VColorScheme@@SAAAVVBrush@@W4Color@1@@Z         @577 NONAME
?systemPen@VColorScheme@@SAAAVVPen@@W4Color@1@@Z             @578 NONAME
?isSystemColor@VColorScheme@@SAHPAVVColor@@@Z                @579 NONAME
?isSystemBrush@VColorScheme@@SAHPAVVBrush@@@Z                @580 NONAME
?isSystemPen@VColorScheme@@SAHPAVVPen@@@Z                    @581 NONAME
?checkSystemColorDeletion@VColorScheme@@SAHPAVVColor@@@Z     @582 NONAME
?checkSystemBrushDeletion@VColorScheme@@SAHPAVVBrush@@@Z     @583 NONAME
?checkSystemPenDeletion@VColorScheme@@SAHPAVVPen@@@Z         @584 NONAME
?VControlHelpVControlHelp@@YAPAXXZ                           @585 NONAME
?iam@VControlHelp@@UAEPAVVClass@@XZ                          @586 NONAME
??0VControlHelp@@QAE@XZ                                      @587 NONAME
??0VControlHelp@@QAE@PAVVWindow@@PAVVDictionary@@@Z          @588 NONAME
??1VControlHelp@@UAE@XZ                                      @589 NONAME
?init@VControlHelp@@IAEXPAVVDictionary@@@Z                   @590 NONAME
?getDefault@VControlHelp@@SAPAV1@XZ                          @591 NONAME
?useFont@VControlHelp@@QAEPAVVFont@@PAV2@@Z                  @592 NONAME
?usePen@VControlHelp@@QAEPAVVPen@@PAV2@@Z                    @593 NONAME
?storeMsg@VControlHelp@@IAEJPAVVString@@J@Z                  @594 NONAME
?tipPlease@VControlHelp@@IAEXPAVVControl@@J@Z                @595 NONAME
?tipThankYou@VControlHelp@@IAEXPAVVControl@@J@Z              @596 NONAME
?showNow@VControlHelp@@IAEHXZ                                @597 NONAME
?showMsg@VControlHelp@@IAEHXZ                                @598 NONAME
?hideNow@VControlHelp@@IAEHXZ                                @599 NONAME
?paint@VControlHelp@@UAEHXZ                                  @600 NONAME
?mouseEnter@VControlHelp@@UAEHH@Z                            @601 NONAME
?mouseExit@VControlHelp@@UAEHH@Z                             @602 NONAME
?deleteDefault@VControlHelp@@SAXXZ                           @603 NONAME
?VControlViewVControlView@@YAPAXXZ                           @604 NONAME
?iam@VControlView@@UAEPAVVClass@@XZ                          @605 NONAME
??0VControlView@@QAE@XZ                                      @606 NONAME
??0VControlView@@QAE@ABVVFrame@@PAVVWindow@@PAVVClass@@ABVVStyle@@3@Z @607 NONAME
?prevChildFocus@VControlView@@UAEHPAVVWindow@@@Z             @608 NONAME
?nextChildFocus@VControlView@@UAEHPAVVWindow@@@Z             @609 NONAME
??1VControlView@@UAE@XZ                                      @610 NONAME
?VCollectionVCollection@@YAPAXXZ                             @611 NONAME
?iam@VCollection@@UAEPAVVClass@@XZ                           @612 NONAME
?first@VCollection@@QBEPAVVObject@@XZ                        @613 NONAME
?last@VCollection@@QBEPAVVObject@@XZ                         @614 NONAME
?replace@VCollection@@QAEPAVVObject@@PAV2@0@Z                @615 NONAME
?remove@VCollection@@QAEPAVVObject@@PAV2@@Z                  @616 NONAME
?doPerform@VCollection@@QBEXP8VObject@@AEHXZ@Z               @617 NONAME
?doPerform@VCollection@@QBEXP8VObject@@AEHXZJ@Z              @618 NONAME
?doPerform@VCollection@@QBEXP8VObject@@AEHXZJJ@Z             @619 NONAME
?doPerform@VCollection@@QBEXP8VObject@@AEHXZJJJ@Z            @620 NONAME
?freeAll@VCollection@@UAEXXZ                                 @621 NONAME
?reverseDo@VCollection@@QBEXP8VObject@@AEHXZ@Z               @622 NONAME
?reverseDo@VCollection@@QBEXP8VObject@@AEHXZJ@Z              @623 NONAME
?addTo@VCollection@@QAEXPBV1@@Z                              @624 NONAME
?filter@VCollection@@QAEPAVVObject@@PAV2@@Z                  @625 NONAME
?copyFrom@VCollection@@UAEHPAVVObject@@@Z                    @626 NONAME
??0VCollection@@QAE@XZ                                       @627 NONAME
??0VCollection@@QAE@ABV0@@Z                                  @628 NONAME
??4VCollection@@QAEAAV0@ABV0@@Z                              @629 NONAME
??0VColor@@QAE@W4ColorValue@0@@Z                             @630 NONAME
?getRed@VColor@@QBEFXZ                                       @631 NONAME
?getGreen@VColor@@QBEFXZ                                     @632 NONAME
?getBlue@VColor@@QBEFXZ                                      @633 NONAME
??1VColor@@QAE@XZ                                            @634 NONAME
?VColorSelectVColorSelect@@YAPAXXZ                           @635 NONAME
?iam@VColorSelect@@UAEPAVVClass@@XZ                          @636 NONAME
??0VColorSelect@@QAE@XZ                                      @637 NONAME
??0VColorSelect@@QAE@AAVVColor@@PAVVWindow@@AAH@Z            @638 NONAME
?dialog@VColorSelect@@SAHAAVVColor@@PAVVWindow@@@Z           @639 NONAME
?dialog@VColorSelect@@SAHAAF00PAVVWindow@@@Z                 @640 NONAME
?dialog@VColorSelect@@SAPAVVColor@@PAVVWindow@@@Z            @641 NONAME
??RVColorSelect@@QAEHAAVVColor@@PAVVWindow@@@Z               @642 NONAME
?VComboBoxVComboBox@@YAPAXXZ                                 @643 NONAME
?iam@VComboBox@@UAEPAVVClass@@XZ                             @644 NONAME
??0VComboBox@@QAE@XZ                                         @645 NONAME
??0VComboBox@@QAE@IPAVVWindow@@@Z                            @646 NONAME
??1VComboBox@@UAE@XZ                                         @647 NONAME
?destroyDropDown@VComboBox@@IAEXXZ                           @648 NONAME
??0VComboBox@@QAE@ABVVFrame@@PAVVWindow@@ABVVStyle@@@Z       @649 NONAME
??0VComboBox@@QAE@ABVVString@@ABVVFrame@@PAVVWindow@@ABVVStyle@@@Z @650 NONAME
?clearList@VComboBox@@UAEXXZ                                 @651 NONAME
?count@VComboBox@@UBEHXZ                                     @652 NONAME
?deleteStringAt@VComboBox@@UAEXH@Z                           @653 NONAME
?dir@VComboBox@@UAEHPAVVString@@I@Z                          @654 NONAME
?insertString@VComboBox@@UAEXPBD@Z                           @655 NONAME
?insertString@VComboBox@@UAEXPBDH@Z                          @656 NONAME
?findString@VComboBox@@QAEHPBDH@Z                            @657 NONAME
?findPrefix@VComboBox@@UAEHPBDH@Z                            @658 NONAME
?selectItem@VComboBox@@UAEXJ@Z                               @659 NONAME
?selectedItem@VComboBox@@UBEHXZ                              @660 NONAME
?getEditHeight@VComboBox@@QAEHXZ                             @661 NONAME
?getDropDownHeight@VComboBox@@QAEHXZ                         @662 NONAME
?getPreferredSize@VComboBox@@MBEXPAH0@Z                      @663 NONAME
?getSystemBorderSize@VComboBox@@MBEXPAH0@Z                   @664 NONAME
?setLimit@VComboBox@@QAEXI@Z                                 @665 NONAME
?selectedString@VComboBox@@UBEPAVVString@@XZ                 @666 NONAME
?getInfo@VComboBox@@MAEXAAVVWinInfo@@@Z                      @667 NONAME
?getMinSize@VComboBox@@MAEXAAF0@Z                            @668 NONAME
?notify@VComboBox@@MAEHH@Z                                   @669 NONAME
?erased@VComboBox@@UAEHXZ                                    @670 NONAME
?paint@VComboBox@@UAEHXZ                                     @671 NONAME
?getStyle@VComboBox@@QBEABVVStyle@@XZ                        @672 NONAME
?setStyle@VComboBox@@QAEXABVVStyle@@@Z                       @673 NONAME
?showDropDown@VComboBox@@QAEXH@Z                             @674 NONAME
?isDroppedDown@VComboBox@@QBEHXZ                             @675 NONAME
?getStringAt@VComboBox@@UAEPAVVString@@H@Z                   @676 NONAME
?uponChange@VComboBox@@QAEXPAVVObject@@P82@AEHXZ@Z           @677 NONAME
?setGeometry@VComboBox@@UAEXHHHH@Z                           @678 NONAME
?setGeometrySize@VComboBox@@UAEXHH@Z                         @679 NONAME
?getCtlColor@VComboBox@@MAEIXZ                               @680 NONAME
?destroyed@VComboBox@@MAEXXZ                                 @681 NONAME
?putTo@VComboBox@@UAEXAAVVArchiver@@@Z                       @682 NONAME
?putTo@VComboBox@@IAEXAAVVArchiver@@H@Z                      @683 NONAME
?getFrom@VComboBox@@UAEXAAVVArchiver@@@Z                     @684 NONAME
?getFrom@VComboBox@@UAEXAAVVArchiver@@PAVVObject@@H@Z        @685 NONAME
?realize@VComboBox@@UAEXPAVVWindow@@@Z                       @686 NONAME
?VContainerVContainer@@YAPAXXZ                               @687 NONAME
?iam@VContainer@@UAEPAVVClass@@XZ                            @688 NONAME
??0VContainer@@QAE@XZ                                        @689 NONAME
??0VContainer@@QAE@I@Z                                       @690 NONAME
??0VContainer@@QAE@JI@Z                                      @691 NONAME
??0VContainer@@QAE@ABV0@@Z                                   @692 NONAME
??4VContainer@@QAEAAV0@ABV0@@Z                               @693 NONAME
??1VContainer@@UAE@XZ                                        @694 NONAME
?size@VContainer@@UBEJXZ                                     @695 NONAME
?atPut@VContainer@@UAEJJPAV1@J@Z                             @696 NONAME
?atGet@VContainer@@UAEJJPAV1@J@Z                             @697 NONAME
?hash@VContainer@@UBEJXZ                                     @698 NONAME
?isEqual@VContainer@@UBEHPAVVObject@@@Z                      @699 NONAME
?atGet@VContainer@@QAEHJPAD@Z                                @700 NONAME
?atGet@VContainer@@QAEJJPADJ@Z                               @701 NONAME
?atPut@VContainer@@QAEXJPAD@Z                                @702 NONAME
?atPut@VContainer@@QAEJJPADJ@Z                               @703 NONAME
?copyFrom@VContainer@@UAEHPAVVObject@@@Z                     @704 NONAME
?expand@VContainer@@QAEXXZ                                   @705 NONAME
?expandTo@VContainer@@UAEXJ@Z                                @706 NONAME
?expand@VContainer@@QAEXJ@Z                                  @707 NONAME
?reset@VContainer@@UAEXXZ                                    @708 NONAME
?getFrom@VContainer@@UAEXAAVVArchiver@@@Z                    @709 NONAME
?getFrom@VContainer@@UAEXAAVVArchiver@@PAVVObject@@H@Z       @710 NONAME
?putTo@VContainer@@UAEXAAVVArchiver@@@Z                      @711 NONAME
?getDataHndl@VContainer@@QAEPAXXZ                            @712 NONAME
?setData@VContainer@@QAEPADPAD@Z                             @713 NONAME
?isHuge@VContainer@@QBEHXZ                                   @714 NONAME
?VControlVControl@@YAPAXXZ                                   @715 NONAME
?iam@VControl@@UAEPAVVClass@@XZ                              @716 NONAME
?getClassDefaultStyle@VControl@@SAAAVVStyle@@XZ              @717 NONAME
?getDefaultStyle@VControl@@UBEAAVVStyle@@XZ                  @718 NONAME
??0VControl@@QAE@XZ                                          @719 NONAME
??0VControl@@QAE@IPAVVWindow@@@Z                             @720 NONAME
??0VControl@@QAE@ABVVFrame@@PAVVWindow@@ABVVStyle@@@Z        @721 NONAME
??0VControl@@QAE@ABVVString@@ABVVFrame@@PAVVWindow@@ABVVStyle@@@Z @722 NONAME
?init@VControl@@IAEXXZ                                       @723 NONAME
??1VControl@@UAE@XZ                                          @724 NONAME
?getInfo@VControl@@MAEXAAVVWinInfo@@@Z                       @725 NONAME
?getMinSize@VControl@@MAEXAAF0@Z                             @726 NONAME
?getText@VControl@@QAE?AVVString@@XZ                         @727 NONAME
?getText@VControl@@UAEHAAVVString@@@Z                        @728 NONAME
?sizeOfText@VControl@@QAEIXZ                                 @729 NONAME
?putText@VControl@@QAEXABVVString@@@Z                        @730 NONAME
?notify@VControl@@MAEHH@Z                                    @731 NONAME
?getRscWindow@VControl@@QAEHIPAVVWindow@@@Z                  @732 NONAME
?sizeOf@VControl@@UAEXPAH0@Z                                 @733 NONAME
?stdSize@VControl@@SAXPAVVClass@@PAH1@Z                      @734 NONAME
?setFont@VControl@@UAEXPAVVFont@@@Z                          @735 NONAME
?getText@VControl@@UAEHPADI@Z                                @736 NONAME
?erased@VControl@@UAEHXZ                                     @737 NONAME
?setControlHelp@VControl@@QAEXPAVVControlHelp@@@Z            @738 NONAME
?setControlHelpMsg@VControl@@QAEJPAVVString@@J@Z             @739 NONAME
?setControlHelpMsg@VControl@@QAEJABVVString@@J@Z             @740 NONAME
?mouseEnter@VControl@@UAEHH@Z                                @741 NONAME
?mouseExit@VControl@@UAEHH@Z                                 @742 NONAME
?mouseDn@VControl@@UAEHHH@Z                                  @743 NONAME
?rmouseDn@VControl@@UAEHHH@Z                                 @744 NONAME
?paint@VControl@@UAEHXZ                                      @745 NONAME
?givenFocus@VControl@@UAEHXZ                                 @746 NONAME
?key@VControl@@UAEHHD@Z                                      @747 NONAME
?fontSize@VControl@@UAEXPAH0@Z                               @748 NONAME
?queryPreferredSize@VControl@@QBEXPAH0HHHPAVVFont@@PBD@Z     @749 NONAME
?getPreferredSize@VControl@@UBEXPAH0@Z                       @750 NONAME
?getSystemBorderSize@VControl@@UBEXPAH0@Z                    @751 NONAME
?getInternalBorderGeometry@VControl@@UBEXPAH000@Z            @752 NONAME
?systemFontChanged@VControl@@MAEXXZ                          @753 NONAME
?putTo@VControl@@UAEXAAVVArchiver@@@Z                        @754 NONAME
?putTo@VControl@@IAEXAAVVArchiver@@H@Z                       @755 NONAME
?getFrom@VControl@@UAEXAAVVArchiver@@@Z                      @756 NONAME
?getFrom@VControl@@UAEXAAVVArchiver@@PAVVObject@@H@Z         @757 NONAME
?realize@VControl@@UAEXPAVVWindow@@@Z                        @758 NONAME
?_cv_assert_dialog@@YAXPBD0H@Z                               @759 NONAME
??0VThread@@QAE@XZ                                           @760 NONAME
??0VThread@@QAE@P6AKPAX@Z00II@Z                              @761 NONAME
??1VThread@@QAE@XZ                                           @762 NONAME
?buildPreExisting@VThread@@QAEXPAXKI@Z                       @763 NONAME
?build@VThread@@QAEXP6AKPAX@Z00II@Z                          @764 NONAME
?start@VThread@@QAEHXZ                                       @765 NONAME
?suspendThread@VThread@@QAEXXZ                               @766 NONAME
?resumeThread@VThread@@QAEXXZ                                @767 NONAME
?setRelativePriority@VThread@@QAEXW4RelativePriority@1@@Z    @768 NONAME
??0VDate@@QAE@H@Z                                            @769 NONAME
??0VDate@@QAE@FF@Z                                           @770 NONAME
??0VDate@@QAE@FW4Month@0@D@Z                                 @771 NONAME
??0VDate@@QAE@W4Month@0@D@Z                                  @772 NONAME
??0VDate@@QAE@PBUtm@@@Z                                      @773 NONAME
??0VDate@@QAE@FW4Month@0@W4DayOfWeek@0@H@Z                   @774 NONAME
?set@VDate@@QAEXXZ                                           @775 NONAME
?set@VDate@@QAEXFF@Z                                         @776 NONAME
?set@VDate@@QAEXFW4Month@1@D@Z                               @777 NONAME
?set@VDate@@QAEXFW4Month@1@W4DayOfWeek@1@H@Z                 @778 NONAME
?set@VDate@@QAEXW4Month@1@D@Z                                @779 NONAME
?set@VDate@@QAEXPBUtm@@@Z                                    @780 NONAME
?getTm@VDate@@QBEXPAUtm@@@Z                                  @781 NONAME
?setYear@VDate@@QAEXF@Z                                      @782 NONAME
?setMonth@VDate@@QAEXW4Month@1@@Z                            @783 NONAME
?setDayOfWeek@VDate@@QAEXW4DayOfWeek@1@@Z                    @784 NONAME
?setDayOfMonth@VDate@@QAEXD@Z                                @785 NONAME
?setDayOfYear@VDate@@QAEXF@Z                                 @786 NONAME
?setJulianDay@VDate@@QAEXJ@Z                                 @787 NONAME
?setStartOfGregorian@VDate@@IAEXXZ                           @788 NONAME
?getYear@VDate@@QBEFXZ                                       @789 NONAME
?getMonth@VDate@@QBE?AW4Month@1@XZ                           @790 NONAME
?getDayOfMonth@VDate@@QBEDXZ                                 @791 NONAME
?getDayOfWeek@VDate@@QBE?AW4DayOfWeek@1@XZ                   @792 NONAME
?getDayOfYear@VDate@@QBEFXZ                                  @793 NONAME
?getDaysPerYear@VDate@@QBEHXZ                                @794 NONAME
?getDaysPerYear@VDate@@SAHF@Z                                @795 NONAME
?getDaysPerMonth@VDate@@QBEHXZ                               @796 NONAME
?getDaysPerMonth@VDate@@SAHW4Month@1@F@Z                     @797 NONAME
?isLeapYear@VDate@@QBEHXZ                                    @798 NONAME
?isLeapYear@VDate@@SAHF@Z                                    @799 NONAME
?getJulianDay@VDate@@QBEJXZ                                  @800 NONAME
?getDayOfWeekString@VDate@@QAEXAAVVString@@H@Z               @801 NONAME
?getMonthString@VDate@@QAEXAAVVString@@H@Z                   @802 NONAME
?getYearString@VDate@@QAEXAAVVString@@H@Z                    @803 NONAME
?getRomanYearString@VDate@@QAEXAAVVString@@@Z                @804 NONAME
?getString@VDate@@QAEXAAVVString@@PBD@Z                      @805 NONAME
?weekOf@VDate@@QBE?AV1@XZ                                    @806 NONAME
?weekOf@VDate@@QBE?AV1@W4DayOfWeek@1@@Z                      @807 NONAME
?getRomanNumeralString@VDate@@SAXAAVVString@@J@Z             @808 NONAME
?addDays@VDate@@QAEXH@Z                                      @809 NONAME
?addWeeks@VDate@@QAEXH@Z                                     @810 NONAME
?addMonths@VDate@@QAEXH@Z                                    @811 NONAME
?addYears@VDate@@QAEXH@Z                                     @812 NONAME
?plusDays@VDate@@QBE?AV1@H@Z                                 @813 NONAME
?plusWeeks@VDate@@QBE?AV1@H@Z                                @814 NONAME
?plusMonths@VDate@@QBE?AV1@H@Z                               @815 NONAME
?plusYears@VDate@@QBE?AV1@H@Z                                @816 NONAME
??GVDate@@QBEJABV0@@Z                                        @817 NONAME
?getDataFromYearAndDay@VDate@@IBEXAAUVDateData@1@@Z          @818 NONAME
?getDataFromYearMonthAndDay@VDate@@IBEXAAUVDateData@1@@Z     @819 NONAME
?getFirstDayOfWeekInYear@VDate@@IBE?AW4DayOfWeek@1@FPAH@Z    @820 NONAME
?getJulianDayFromYearMonthAndDay@VDate@@SAXJJJAAJ@Z          @821 NONAME
?getYearMonthAndDayFromJulianDay@VDate@@SAXJAAJ00@Z          @822 NONAME
?mapShortYear@VDate@@SAFF@Z                                  @823 NONAME
?enableShortYearMapping@VDate@@SAXH@Z                        @824 NONAME
?disableShortYearMapping@VDate@@SAXH@Z                       @825 NONAME
?isShortYearMappingEnabled@VDate@@SAHXZ                      @826 NONAME
?isShortYearMappingDisabled@VDate@@SAHXZ                     @827 NONAME
?setShortYearMappingYear@VDate@@SAXF@Z                       @828 NONAME
?getShortYearMappingYear@VDate@@SAFXZ                        @829 NONAME
?calculateShortYearRollOverData@VDate@@KAXF@Z                @830 NONAME
?VDateTimeVDateTime@@YAPAXXZ                                 @831 NONAME
?iam@VDateTime@@UAEPAVVClass@@XZ                             @832 NONAME
??0VDateTime@@QAE@H@Z                                        @833 NONAME
??0VDateTime@@QAE@ABVVTimeZone@@@Z                           @834 NONAME
??0VDateTime@@QAE@ABVVDate@@@Z                               @835 NONAME
??0VDateTime@@QAE@ABVVTime@@@Z                               @836 NONAME
??0VDateTime@@QAE@ABVVDate@@ABVVTime@@@Z                     @837 NONAME
??0VDateTime@@QAE@ABVVDate@@ABVVTime@@ABVVTimeZone@@@Z       @838 NONAME
??0VDateTime@@QAE@PBUtm@@@Z                                  @839 NONAME
??0VDateTime@@QAE@PBUtm@@ABVVTimeZone@@@Z                    @840 NONAME
?set@VDateTime@@QAEXXZ                                       @841 NONAME
?set@VDateTime@@QAEXABVVDate@@@Z                             @842 NONAME
?set@VDateTime@@QAEXABVVTime@@@Z                             @843 NONAME
?set@VDateTime@@QAEXABVVDate@@ABVVTime@@@Z                   @844 NONAME
?set@VDateTime@@QAEXABVVDate@@ABVVTime@@ABVVTimeZone@@@Z     @845 NONAME
?set@VDateTime@@QAEXPBUtm@@@Z                                @846 NONAME
?set@VDateTime@@QAEXPBUtm@@ABVVTimeZone@@@Z                  @847 NONAME
?setDate@VDateTime@@QAEXXZ                                   @848 NONAME
?setDate@VDateTime@@QAEXABVVDate@@@Z                         @849 NONAME
?setDate@VDateTime@@QAEXFF@Z                                 @850 NONAME
?setDate@VDateTime@@QAEXFW4Month@VDate@@D@Z                  @851 NONAME
?setDate@VDateTime@@QAEXW4Month@VDate@@D@Z                   @852 NONAME
?setYear@VDateTime@@QAEXF@Z                                  @853 NONAME
?setMonth@VDateTime@@QAEXW4Month@VDate@@@Z                   @854 NONAME
?setDayOfWeek@VDateTime@@QAEXW4DayOfWeek@VDate@@@Z           @855 NONAME
?setDayOfMonth@VDateTime@@QAEXD@Z                            @856 NONAME
?setDayOfYear@VDateTime@@QAEXF@Z                             @857 NONAME
?setTime@VDateTime@@QAEXXZ                                   @858 NONAME
?setTime@VDateTime@@QAEXABVVTime@@@Z                         @859 NONAME
?setTime@VDateTime@@QAEXHHH@Z                                @860 NONAME
?setHour@VDateTime@@QAEXH@Z                                  @861 NONAME
?setMinute@VDateTime@@QAEXH@Z                                @862 NONAME
?setSecond@VDateTime@@QAEXH@Z                                @863 NONAME
?setTimeZone@VDateTime@@QAEXABVVTimeZone@@@Z                 @864 NONAME
?setTimeZone@VDateTime@@QAEXXZ                               @865 NONAME
?getTimeZone@VDateTime@@QBEABVVTimeZone@@XZ                  @866 NONAME
?getYear@VDateTime@@QBEFXZ                                   @867 NONAME
?getMonth@VDateTime@@QBE?AW4Month@VDate@@XZ                  @868 NONAME
?getDayOfMonth@VDateTime@@QBEDXZ                             @869 NONAME
?getDayOfWeek@VDateTime@@QBE?AW4DayOfWeek@VDate@@XZ          @870 NONAME
?getDayOfYear@VDateTime@@QBEFXZ                              @871 NONAME
?getDaysPerYear@VDateTime@@QBEHXZ                            @872 NONAME
?getDaysPerMonth@VDateTime@@QBEHXZ                           @873 NONAME
?isLeapYear@VDateTime@@QBEHXZ                                @874 NONAME
?getJulianDay@VDateTime@@QBEJXZ                              @875 NONAME
?getHour@VDateTime@@QBEHXZ                                   @876 NONAME
?getMinute@VDateTime@@QBEHXZ                                 @877 NONAME
?getSecond@VDateTime@@QBEHXZ                                 @878 NONAME
?getTm@VDateTime@@QBEXPAUtm@@H@Z                             @879 NONAME
?isDST@VDateTime@@QBEHXZ                                     @880 NONAME
?getYearString@VDateTime@@QAEXAAVVString@@H@Z                @881 NONAME
?getRomanYearString@VDateTime@@QAEXAAVVString@@@Z            @882 NONAME
?getMonthString@VDateTime@@QAEXAAVVString@@H@Z               @883 NONAME
?getDayOfWeekString@VDateTime@@QAEXAAVVString@@H@Z           @884 NONAME
?getHourString@VDateTime@@QAEXAAVVString@@H@Z                @885 NONAME
?getMinuteString@VDateTime@@QAEXAAVVString@@H@Z              @886 NONAME
?getSecondString@VDateTime@@QAEXAAVVString@@H@Z              @887 NONAME
?getTimeZoneString@VDateTime@@QAEXAAVVString@@H@Z            @888 NONAME
?getString@VDateTime@@QAEXAAVVString@@PBD@Z                  @889 NONAME
?addYears@VDateTime@@QAEXH@Z                                 @890 NONAME
?addMonths@VDateTime@@QAEXH@Z                                @891 NONAME
?addWeeks@VDateTime@@QAEXH@Z                                 @892 NONAME
?addDays@VDateTime@@QAEXH@Z                                  @893 NONAME
?addHours@VDateTime@@QAEXH@Z                                 @894 NONAME
?addMinutes@VDateTime@@QAEXH@Z                               @895 NONAME
?addSeconds@VDateTime@@QAEXH@Z                               @896 NONAME
?plusYears@VDateTime@@QBE?AV1@H@Z                            @897 NONAME
?plusMonths@VDateTime@@QBE?AV1@H@Z                           @898 NONAME
?plusWeeks@VDateTime@@QBE?AV1@H@Z                            @899 NONAME
?plusDays@VDateTime@@QBE?AV1@H@Z                             @900 NONAME
?plusHours@VDateTime@@QBE?AV1@H@Z                            @901 NONAME
?plusMinutes@VDateTime@@QBE?AV1@H@Z                          @902 NONAME
?plusSeconds@VDateTime@@QBE?AV1@H@Z                          @903 NONAME
??GVDateTime@@QBEJABV0@@Z                                    @904 NONAME
??8VDateTime@@QBEHABV0@@Z                                    @905 NONAME
??9VDateTime@@QBEHABV0@@Z                                    @906 NONAME
??MVDateTime@@QBEHABV0@@Z                                    @907 NONAME
??OVDateTime@@QBEHABV0@@Z                                    @908 NONAME
??NVDateTime@@QBEHABV0@@Z                                    @909 NONAME
??PVDateTime@@QBEHABV0@@Z                                    @910 NONAME
?isEqual@VDateTime@@UBEHPAVVObject@@@Z                       @911 NONAME
?hash@VDateTime@@UBEJXZ                                      @912 NONAME
?compare@VDateTime@@UBEHPAVVObject@@@Z                       @913 NONAME
?putTo@VDateTime@@UAEXAAVVArchiver@@@Z                       @914 NONAME
?getFrom@VDateTime@@UAEXAAVVArchiver@@@Z                     @915 NONAME
?getFrom@VDateTime@@UAEXAAVVArchiver@@PAVVObject@@H@Z        @916 NONAME
?VDdeClientVDdeClient@@YAPAXXZ                               @917 NONAME
?iam@VDdeClient@@UAEPAVVClass@@XZ                            @918 NONAME
??0VDdeClient@@QAE@XZ                                        @919 NONAME
??1VDdeClient@@UAE@XZ                                        @920 NONAME
?user@VDdeClient@@MAEHIIJ@Z                                  @921 NONAME
?sndExecute@VDdeClient@@IAEHPBD@Z                            @922 NONAME
?rcvData@VDdeClient@@MAEIPBDI0JI@Z                           @923 NONAME
?rcvAck@VDdeClient@@MAEXIII@Z                                @924 NONAME
?sndInitiate@VDdeClient@@IAEHPBD0@Z                          @925 NONAME
?sndRequest@VDdeClient@@IAEHPBDI@Z                           @926 NONAME
?sndAdvise@VDdeClient@@IAEHPBDHI@Z                           @927 NONAME
?sndUnadvise@VDdeClient@@IAEHPBD@Z                           @928 NONAME
?sndPoke@VDdeClient@@IAEHPBDI@Z                              @929 NONAME
?rcvTerminate@VDdeClient@@MAEXXZ                             @930 NONAME
?connect@VDdeClient@@QAEHPBD0@Z                              @931 NONAME
?coldLink@VDdeClient@@QAEHPBD@Z                              @932 NONAME
?warmLink@VDdeClient@@QAEHPBDI@Z                             @933 NONAME
?hotLink@VDdeClient@@QAEHPBDI@Z                              @934 NONAME
?requestItem@VDdeClient@@QAEPAVVObject@@PBDI@Z               @935 NONAME
?sendItem@VDdeClient@@QAEHPBDPAVVObject@@I@Z                 @936 NONAME
?execute@VDdeClient@@QAEHPBD@Z                               @937 NONAME
?VDdeVDde@@YAPAXXZ                                           @938 NONAME
?iam@VDde@@UAEPAVVClass@@XZ                                  @939 NONAME
??0VDde@@QAE@XZ                                              @940 NONAME
?getInfo@VDde@@MAEXAAVVWinInfo@@@Z                           @941 NONAME
?user@VDde@@MAEHIIJ@Z                                        @942 NONAME
?rcvTerminate@VDde@@MAEXXZ                                   @943 NONAME
?rcvAck@VDde@@MAEXIII@Z                                      @944 NONAME
?sndTerminate@VDde@@IAEHH@Z                                  @945 NONAME
?sndAck@VDde@@IAEHIIH@Z                                      @946 NONAME
?dataToId@VDde@@UAEPAVVObject@@IPBDJ@Z                       @947 NONAME
?idToData@VDde@@UAEHPAVVObject@@I@Z                          @948 NONAME
?setData@VDde@@QAEXIJPBD@Z                                   @949 NONAME
?strToHandle@VDde@@IAEPAXPBD@Z                               @950 NONAME
?uponEvent@VDde@@QAEXPAVVObject@@P82@AEHXZ@Z                 @951 NONAME
?callback@VDde@@IAEHW4DdeEvent@@PADPAVVObject@@@Z            @952 NONAME
?yieldEnd@VDde@@IAEXI@Z                                      @953 NONAME
?yieldAck@VDde@@IAEHI@Z                                      @954 NONAME
?disconnect@VDde@@UAEHXZ                                     @955 NONAME
?objectFormat@VDde@@SAIXZ                                    @956 NONAME
?VDdeServerVDdeServer@@YAPAXXZ                               @957 NONAME
?iam@VDdeServer@@UAEPAVVClass@@XZ                            @958 NONAME
??0VAdvise@@QAE@PAD@Z                                        @959 NONAME
??0VAdvise@@QAE@PADHI@Z                                      @960 NONAME
?serve@VDdeServer@@IAEXPAV1@@Z                               @961 NONAME
??0VDdeServer@@QAE@XZ                                        @962 NONAME
??1VDdeServer@@UAE@XZ                                        @963 NONAME
?user@VDdeServer@@MAEHIIJ@Z                                  @964 NONAME
?rcvInitiate@VDdeServer@@MAEIPAD0PAX@Z                       @965 NONAME
?rcvRequest@VDdeServer@@MAEIPADI@Z                           @966 NONAME
?rcvAdvise@VDdeServer@@MAEIPADII@Z                           @967 NONAME
?rcvUnadvise@VDdeServer@@MAEIPAD@Z                           @968 NONAME
?rcvExecute@VDdeServer@@MAEIPAD@Z                            @969 NONAME
?rcvPoke@VDdeServer@@MAEIPADI0J@Z                            @970 NONAME
?sndData@VDdeServer@@IAEHPADPAXI@Z                           @971 NONAME
?sendItem@VDdeServer@@QAEHPADPAVVObject@@I@Z                 @972 NONAME
?ackData@VDdeServer@@QAEXH@Z                                 @973 NONAME
?adviseOn@VDdeServer@@IAEXPADH@Z                             @974 NONAME
?adviseOff@VDdeServer@@IAEXPAD@Z                             @975 NONAME
?updateItem@VDdeServer@@QAEXPAD@Z                            @976 NONAME
?disconnect@VDdeServer@@UAEHXZ                               @977 NONAME
?rcvTerminate@VDdeServer@@MAEXXZ                             @978 NONAME
?VDialogVDialog@@YAPAXXZ                                     @979 NONAME
?iam@VDialog@@UAEPAVVClass@@XZ                               @980 NONAME
?getClassDefaultStyle@VDialog@@SAAAVVStyle@@XZ               @981 NONAME
?getDefaultStyle@VDialog@@UBEAAVVStyle@@XZ                   @982 NONAME
??0VDialog@@QAE@HHHHPAVVWindow@@ABVVStyle@@@Z                @983 NONAME
??0VDialog@@QAE@ABVVFrame@@PAVVWindow@@PBDABVVStyle@@@Z      @984 NONAME
??0VDialog@@QAE@ABVVString@@ABVVFrame@@PAVVWindow@@PBDABVVStyle@@@Z @985 NONAME
??0VDialog@@QAE@PBDPAVVWindow@@@Z                            @986 NONAME
??0VDialog@@QAE@XZ                                           @987 NONAME
??1VDialog@@UAE@XZ                                           @988 NONAME
?init@VDialog@@IAEXXZ                                        @989 NONAME
?realizeInit@VDialog@@IAEXPBD@Z                              @990 NONAME
?getInfo@VDialog@@MAEXAAVVWinInfo@@@Z                        @991 NONAME
?endModal@VDialog@@QAEXXZ                                    @992 NONAME
?modal@VDialog@@QAEXXZ                                       @993 NONAME
?stdSize@VDialog@@SAXABVVStyle@@PAH1@Z                       @994 NONAME
?setSysMenu@VDialog@@QAEXXZ                                  @995 NONAME
?ok@VDialog@@UAEHPAVVButton@@@Z                              @996 NONAME
?cancel@VDialog@@UAEHPAVVButton@@@Z                          @997 NONAME
?okPressed@VDialog@@QAEHPAVVButton@@@Z                       @998 NONAME
?cancelPressed@VDialog@@QAEHPAVVButton@@@Z                   @999 NONAME
?close@VDialog@@UAEHXZ                                       @1000 NONAME
?getSystemBorderSize@VDialog@@UBEXPAH0@Z                     @1001 NONAME
?getCtlColor@VDialog@@UAEIXZ                                 @1002 NONAME
?putTo@VDialog@@UAEXAAVVArchiver@@@Z                         @1003 NONAME
?putTo@VDialog@@IAEXAAVVArchiver@@H@Z                        @1004 NONAME
?getFrom@VDialog@@UAEXAAVVArchiver@@@Z                       @1005 NONAME
?getFrom@VDialog@@UAEXAAVVArchiver@@PAVVObject@@H@Z          @1006 NONAME
?realize@VDialog@@UAEXPAVVWindow@@@Z                         @1007 NONAME
?setFont@VDialog@@UAEXPAVVFont@@@Z                           @1008 NONAME
?VDictionaryVDictionary@@YAPAXXZ                             @1009 NONAME
?iam@VDictionary@@UAEPAVVClass@@XZ                           @1010 NONAME
?getAssoc@VDictionary@@IAEPAVVAssoc@@PAVVObject@@0@Z         @1011 NONAME
?atKeyPut@VDictionary@@QAEHPAVVObject@@0@Z                   @1012 NONAME
?atKeyPut@VDictionary@@QAEHPAVVObject@@J@Z                   @1013 NONAME
?copyFrom@VDictionary@@UAEHPAVVObject@@@Z                    @1014 NONAME
??0VDictionary@@QAE@XZ                                       @1015 NONAME
??0VDictionary@@QAE@H@Z                                      @1016 NONAME
??0VDictionary@@QAE@PBVVClass@@@Z                            @1017 NONAME
??1VDictionary@@UAE@XZ                                       @1018 NONAME
?getValueAtKey@VDictionary@@QBEPAVVObject@@PBV2@@Z           @1019 NONAME
?includesKey@VDictionary@@QBEHPBVVObject@@@Z                 @1020 NONAME
?removeKey@VDictionary@@QAEPAVVObject@@PBV2@@Z               @1021 NONAME
?setOfKeys@VDictionary@@QBEPAVVSet@@XZ                       @1022 NONAME
?reset@VDictionary@@UAEXXZ                                   @1023 NONAME
??0VDictionary@@QAE@ABV0@@Z                                  @1024 NONAME
??4VDictionary@@QAEAAV0@ABV0@@Z                              @1025 NONAME
?VDisplayVDisplay@@YAPAXXZ                                   @1026 NONAME
?iam@VDisplay@@UAEPAVVClass@@XZ                              @1027 NONAME
??0VDisplay@@QAE@XZ                                          @1028 NONAME
??1VDisplay@@UAE@XZ                                          @1029 NONAME
?sizeOfImage@VDisplay@@UAEXPAH0@Z                            @1030 NONAME
?depthOfImage@VDisplay@@UAEHXZ                               @1031 NONAME
?getHndl@VDisplay@@UAEPAUHDC__@@XZ                           @1032 NONAME
?ungetHndl@VDisplay@@UAEXXZ                                  @1033 NONAME
?fontSize@VDisplay@@UAEXPAH0@Z                               @1034 NONAME
?getPalette@VDisplay@@UAEPAUHPALETTE__@@XZ                   @1035 NONAME
?setPalette@VDisplay@@UAEXPAUHPALETTE__@@@Z                  @1036 NONAME
?putTo@VDisplay@@UAEXAAVVArchiver@@@Z                        @1037 NONAME
?getFrom@VDisplay@@UAEXAAVVArchiver@@@Z                      @1038 NONAME
?getFrom@VDisplay@@UAEXAAVVArchiver@@PAVVObject@@H@Z         @1039 NONAME
??0VOleEnumFormatEtc@@AAE@PAVVObjectCourier@@@Z              @1040 NONAME
??0VOleEnumFormatEtc@@AAE@KPAUtagFORMATETC@@K@Z              @1041 NONAME
??1VOleEnumFormatEtc@@AAE@XZ                                 @1042 NONAME
?QueryInterface@VOleEnumFormatEtc@@EAGJABU_GUID@@PAPAX@Z     @1043 NONAME
?AddRef@VOleEnumFormatEtc@@EAGKXZ                            @1044 NONAME
?Release@VOleEnumFormatEtc@@EAGKXZ                           @1045 NONAME
?Next@VOleEnumFormatEtc@@EAGJKPAUtagFORMATETC@@PAK@Z         @1046 NONAME
?Skip@VOleEnumFormatEtc@@EAGJK@Z                             @1047 NONAME
?Reset@VOleEnumFormatEtc@@EAGJXZ                             @1048 NONAME
?Clone@VOleEnumFormatEtc@@EAGJPAPAUIEnumFORMATETC@@@Z        @1049 NONAME
?setup@VOleEnumFormatEtc@@AAEXXZ                             @1050 NONAME
??0VFormatEtc@VOleEnumFormatEtc@@AAE@GKK@Z                   @1051 NONAME
??0VOleDataObject@@AAE@PAVVObjectCourier@@@Z                 @1052 NONAME
??1VOleDataObject@@AAE@XZ                                    @1053 NONAME
?QueryInterface@VOleDataObject@@EAGJABU_GUID@@PAPAX@Z        @1054 NONAME
?AddRef@VOleDataObject@@EAGKXZ                               @1055 NONAME
?Release@VOleDataObject@@EAGKXZ                              @1056 NONAME
?GetData@VOleDataObject@@EAGJPAUtagFORMATETC@@PAUtagSTGMEDIUM@@@Z @1057 NONAME
?EnumFormatEtc@VOleDataObject@@EAGJKPAPAUIEnumFORMATETC@@@Z  @1058 NONAME
?SetData@VOleDataObject@@EAGJPAUtagFORMATETC@@PAUtagSTGMEDIUM@@H@Z @1059 NONAME
?GetDataHere@VOleDataObject@@EAGJPAUtagFORMATETC@@PAUtagSTGMEDIUM@@@Z @1060 NONAME
?QueryGetData@VOleDataObject@@EAGJPAUtagFORMATETC@@@Z        @1061 NONAME
?GetCanonicalFormatEtc@VOleDataObject@@EAGJPAUtagFORMATETC@@0@Z @1062 NONAME
?DAdvise@VOleDataObject@@EAGJPAUtagFORMATETC@@KPAUIAdviseSink@@PAK@Z @1063 NONAME
?DUnadvise@VOleDataObject@@EAGJK@Z                           @1064 NONAME
?EnumDAdvise@VOleDataObject@@EAGJPAPAUIEnumSTATDATA@@@Z      @1065 NONAME
?getViewsObject@VOleDataObject@@AAEHPBVVClass@@PAUtagSTGMEDIUM@@@Z @1066 NONAME
?getStringObject@VOleDataObject@@AAEHGPAUtagSTGMEDIUM@@@Z    @1067 NONAME
?getBitmapObject@VOleDataObject@@AAEHGPAUtagSTGMEDIUM@@@Z    @1068 NONAME
??0VObjectCourierImp@@QAE@PAUIDataObject@@@Z                 @1069 NONAME
??1VObjectCourierImp@@UAE@XZ                                 @1070 NONAME
?setObject@VObjectCourierImp@@UAEXPBVVObject@@@Z             @1071 NONAME
?getObject@VObjectCourierImp@@UBEPAVVObject@@PBVVClass@@@Z   @1072 NONAME
?contains@VObjectCourierImp@@UBEHPBVVClass@@@Z               @1073 NONAME
?contains@VObjectCourierImp@@UBEHABVVObjectType@@@Z          @1074 NONAME
?contains@VObjectCourierImp@@IBEHG@Z                         @1075 NONAME
?getViewsObject@VObjectCourierImp@@IBEPAVVObject@@XZ         @1076 NONAME
?getStringObject@VObjectCourierImp@@IBEPAVVObject@@XZ        @1077 NONAME
?getBitmapObject@VObjectCourierImp@@IBEPAVVObject@@XZ        @1078 NONAME
?getIDataObject@VObjectCourierImp@@QBEPAUIDataObject@@XZ     @1079 NONAME
??0VOleDropSource@@AAE@PAVVDragSiteImp@@@Z                   @1080 NONAME
??1VOleDropSource@@AAE@XZ                                    @1081 NONAME
?AddRef@VOleDropSource@@EAGKXZ                               @1082 NONAME
?Release@VOleDropSource@@EAGKXZ                              @1083 NONAME
?QueryInterface@VOleDropSource@@EAGJABU_GUID@@PAPAX@Z        @1084 NONAME
?QueryContinueDrag@VOleDropSource@@EAGJHK@Z                  @1085 NONAME
?GiveFeedback@VOleDropSource@@EAGJK@Z                        @1086 NONAME
?getOperationFromKeyState@VOleDropSource@@SAJK@Z             @1087 NONAME
?getOperationFromKeyState@VOleDropSource@@SAJKK@Z            @1088 NONAME
?getDropEffectFromOperation@VOleDropSource@@SAKJ@Z           @1089 NONAME
??0VDragSiteImp@@AAE@PAVVDragSite@@@Z                        @1090 NONAME
?registerDragSite@VDragSiteImp@@AAEHXZ                       @1091 NONAME
?unregisterDragSite@VDragSiteImp@@AAEXXZ                     @1092 NONAME
?dragLoop@VDragSiteImp@@AAEHPAVVObjectCourier@@@Z            @1093 NONAME
?dragFeedback@VDragSiteImp@@AAEHJ@Z                          @1094 NONAME
??0VOleDropTarget@@AAE@PAVVDropSiteImp@@@Z                   @1095 NONAME
??1VOleDropTarget@@AAE@XZ                                    @1096 NONAME
?AddRef@VOleDropTarget@@EAGKXZ                               @1097 NONAME
?Release@VOleDropTarget@@EAGKXZ                              @1098 NONAME
?QueryInterface@VOleDropTarget@@EAGJABU_GUID@@PAPAX@Z        @1099 NONAME
?DragEnter@VOleDropTarget@@EAGJPAUIDataObject@@KU_POINTL@@PAK@Z @1100 NONAME
?DragLeave@VOleDropTarget@@EAGJXZ                            @1101 NONAME
?DragOver@VOleDropTarget@@EAGJKU_POINTL@@PAK@Z               @1102 NONAME
?Drop@VOleDropTarget@@EAGJPAUIDataObject@@KU_POINTL@@PAK@Z   @1103 NONAME
?setObject@VOleDropTarget@@AAEXPAUIDataObject@@@Z            @1104 NONAME
?getOperationFromKeyState@VOleDropTarget@@CAJK@Z             @1105 NONAME
?getOperationFromKeyState@VOleDropTarget@@CAJKK@Z            @1106 NONAME
?getDropEffectFromOperation@VOleDropTarget@@CAKJ@Z           @1107 NONAME
?setOperation@VOleDropTarget@@AAEXJ@Z                        @1108 NONAME
?getOperation@VOleDropTarget@@ABEJXZ                         @1109 NONAME
?lock@VOleDropTarget@@AAEXXZ                                 @1110 NONAME
?unlock@VOleDropTarget@@AAEXXZ                               @1111 NONAME
??0VDropSiteImp@@AAE@PAVVDropSite@@@Z                        @1112 NONAME
??1VDropSiteImp@@AAE@XZ                                      @1113 NONAME
?registerDropSite@VDropSiteImp@@AAEHXZ                       @1114 NONAME
?unregisterDropSite@VDropSiteImp@@AAEXXZ                     @1115 NONAME
?VDockSiteWindowVDockSiteWindow@@YAPAXXZ                     @1116 NONAME
?iam@VDockSiteWindow@@UAEPAVVClass@@XZ                       @1117 NONAME
??0VDockSiteWindow@@QAE@XZ                                   @1118 NONAME
??0VDockSiteWindow@@QAE@ABVVFrame@@PAVVWindow@@ABVVStyle@@@Z @1119 NONAME
??0VDockSiteWindow@@QAE@PAVVWindow@@ABVVStyle@@@Z            @1120 NONAME
??0VDockSiteWindow@@QAE@ABVVString@@ABVVFrame@@PAVVWindow@@ABVVStyle@@@Z @1121 NONAME
??0VDockSiteWindow@@QAE@ABVVString@@PAVVWindow@@ABVVStyle@@@Z @1122 NONAME
??RVDockSiteWindow@@QAEXABVVFrame@@PAVVWindow@@@Z            @1123 NONAME
??RVDockSiteWindow@@QAEXABVVFrame@@PAVVWindow@@ABVVStyle@@@Z @1124 NONAME
??RVDockSiteWindow@@QAEXABVVFrame@@PAVVWindow@@ABVVStyle@@ABVVString@@@Z @1125 NONAME
??1VDockSiteWindow@@UAE@XZ                                   @1126 NONAME
?initialize@VDockSiteWindow@@IAEXXZ                          @1127 NONAME
?construct@VDockSiteWindow@@IAEXXZ                           @1128 NONAME
?setup@VDockSiteWindow@@IAEXXZ                               @1129 NONAME
?constructStaticData@VDockSiteWindow@@KAXXZ                  @1130 NONAME
?deleteStaticData@VDockSiteWindow@@KAXXZ                     @1131 NONAME
?docked@VDockSiteWindow@@MAEXPAVVDockableWindow@@@Z          @1132 NONAME
?undocked@VDockSiteWindow@@MAEXPAVVDockableWindow@@@Z        @1133 NONAME
?uponDocked@VDockSiteWindow@@QAEXPAVVObject@@P82@AEHXZ@Z     @1134 NONAME
?uponUndocked@VDockSiteWindow@@QAEXPAVVObject@@P82@AEHXZ@Z   @1135 NONAME
?setShadeStyle@VDockSiteWindow@@QAEXH@Z                      @1136 NONAME
?getInternalBorderGeometry@VDockSiteWindow@@MBEXPAH000@Z     @1137 NONAME
?paint@VDockSiteWindow@@MAEHXZ                               @1138 NONAME
?mouseDn@VDockSiteWindow@@MAEHHH@Z                           @1139 NONAME
?mouseDbl@VDockSiteWindow@@MAEHHH@Z                          @1140 NONAME
?rmouseDn@VDockSiteWindow@@MAEHHH@Z                          @1141 NONAME
?getDockedCount@VDockSiteWindow@@QBEHXZ                      @1142 NONAME
?putTo@VDockSiteWindow@@UAEXAAVVArchiver@@@Z                 @1143 NONAME
?putTo@VDockSiteWindow@@IAEXAAVVArchiver@@H@Z                @1144 NONAME
?getFrom@VDockSiteWindow@@UAEXAAVVArchiver@@@Z               @1145 NONAME
?getFrom@VDockSiteWindow@@UAEXAAVVArchiver@@PAVVObject@@H@Z  @1146 NONAME
?realize@VDockSiteWindow@@UAEXPAVVWindow@@@Z                 @1147 NONAME
?VDockableToolBarVDockableToolBar@@YAPAXXZ                   @1148 NONAME
?iam@VDockableToolBar@@UAEPAVVClass@@XZ                      @1149 NONAME
??0VDockableToolBar@@QAE@XZ                                  @1150 NONAME
??0VDockableToolBar@@QAE@PAVVWindow@@ABVVStyle@@@Z           @1151 NONAME
??0VDockableToolBar@@QAE@ABVVString@@PAVVWindow@@ABVVStyle@@@Z @1152 NONAME
??0VDockableToolBar@@QAE@ABVVFrame@@PAVVWindow@@ABVVStyle@@@Z @1153 NONAME
??0VDockableToolBar@@QAE@ABVVString@@ABVVFrame@@PAVVWindow@@ABVVStyle@@@Z @1154 NONAME
??RVDockableToolBar@@QAEXPAVVWindow@@@Z                      @1155 NONAME
??RVDockableToolBar@@QAEXPAVVWindow@@ABVVStyle@@@Z           @1156 NONAME
??RVDockableToolBar@@QAEXPAVVWindow@@ABVVStyle@@ABVVString@@@Z @1157 NONAME
??RVDockableToolBar@@QAEXABVVFrame@@PAVVWindow@@@Z           @1158 NONAME
??RVDockableToolBar@@QAEXABVVFrame@@PAVVWindow@@ABVVStyle@@@Z @1159 NONAME
??RVDockableToolBar@@QAEXABVVFrame@@PAVVWindow@@ABVVStyle@@ABVVString@@@Z @1160 NONAME
??1VDockableToolBar@@UAE@XZ                                  @1161 NONAME
?initialize@VDockableToolBar@@IAEXXZ                         @1162 NONAME
?construct@VDockableToolBar@@IAEXXZ                          @1163 NONAME
?setWrapping@VDockableToolBar@@QAEXH@Z                       @1164 NONAME
?beginDrag@VDockableToolBar@@MAEXXZ                          @1165 NONAME
?endDrag@VDockableToolBar@@MAEXXZ                            @1166 NONAME
?dock@VDockableToolBar@@UAEHPAVVWindow@@@Z                   @1167 NONAME
?undock@VDockableToolBar@@UAEHHH@Z                           @1168 NONAME
?undocked@VDockableToolBar@@MAEHPAVVWindow@@@Z               @1169 NONAME
?docked@VDockableToolBar@@MAEHPAVVWindow@@@Z                 @1170 NONAME
?getDockedSize@VDockableToolBar@@MBEXPAH0HHPAVVWindow@@@Z    @1171 NONAME
?setDockedAttributes@VDockableToolBar@@MAEXPAVVWindow@@@Z    @1172 NONAME
?setUndockedAttributes@VDockableToolBar@@MAEXXZ              @1173 NONAME
?mouseDn@VDockableToolBar@@MAEHHH@Z                          @1174 NONAME
?mouseDbl@VDockableToolBar@@MAEHHH@Z                         @1175 NONAME
?rmouseDn@VDockableToolBar@@MAEHHH@Z                         @1176 NONAME
?enableBool@VDockableToolBar@@UAEXH@Z                        @1177 NONAME
?newToolBar@VDockableToolBar@@MAEPAVVToolBar@@PAVVWindow@@@Z @1178 NONAME
?newClientWindow@VDockableToolBar@@MAEPAVVWindow@@PAV2@@Z    @1179 NONAME
?newUndockedWindow@VDockableToolBar@@MAEPAVVUtilityWindow@@PAVVWindow@@@Z @1180 NONAME
?putTo@VDockableToolBar@@UAEXAAVVArchiver@@@Z                @1181 NONAME
?putTo@VDockableToolBar@@IAEXAAVVArchiver@@H@Z               @1182 NONAME
?getFrom@VDockableToolBar@@UAEXAAVVArchiver@@@Z              @1183 NONAME
?getFrom@VDockableToolBar@@UAEXAAVVArchiver@@PAVVObject@@H@Z @1184 NONAME
?realize@VDockableToolBar@@UAEXPAVVWindow@@@Z                @1185 NONAME
?VDockableWindowVDockableWindow@@YAPAXXZ                     @1186 NONAME
?iam@VDockableWindow@@UAEPAVVClass@@XZ                       @1187 NONAME
??0VDockableWindow@@QAE@XZ                                   @1188 NONAME
??0VDockableWindow@@QAE@PAVVWindow@@ABVVStyle@@@Z            @1189 NONAME
??0VDockableWindow@@QAE@ABVVString@@PAVVWindow@@ABVVStyle@@@Z @1190 NONAME
??0VDockableWindow@@QAE@ABVVFrame@@PAVVWindow@@ABVVStyle@@@Z @1191 NONAME
??0VDockableWindow@@QAE@ABVVString@@ABVVFrame@@PAVVWindow@@ABVVStyle@@@Z @1192 NONAME
??RVDockableWindow@@QAEXPAVVWindow@@@Z                       @1193 NONAME
??RVDockableWindow@@QAEXPAVVWindow@@ABVVStyle@@@Z            @1194 NONAME
??RVDockableWindow@@QAEXPAVVWindow@@ABVVStyle@@ABVVString@@@Z @1195 NONAME
??RVDockableWindow@@QAEXABVVFrame@@PAVVWindow@@@Z            @1196 NONAME
??RVDockableWindow@@QAEXABVVFrame@@PAVVWindow@@ABVVStyle@@@Z @1197 NONAME
??RVDockableWindow@@QAEXABVVFrame@@PAVVWindow@@ABVVStyle@@ABVVString@@@Z @1198 NONAME
??1VDockableWindow@@UAE@XZ                                   @1199 NONAME
?uponBeginDrag@VDockableWindow@@QAEXPAVVObject@@P82@AEHXZ@Z  @1200 NONAME
?uponEndDrag@VDockableWindow@@QAEXPAVVObject@@P82@AEHXZ@Z    @1201 NONAME
?uponDocked@VDockableWindow@@QAEXPAVVObject@@P82@AEHXZ@Z     @1202 NONAME
?uponUndocked@VDockableWindow@@QAEXPAVVObject@@P82@AEHXZ@Z   @1203 NONAME
?uponUndockedClose@VDockableWindow@@QAEXPAVVObject@@P82@AEHXZ@Z @1204 NONAME
?undockedClosed@VDockableWindow@@MAEXPAVVWindow@@@Z          @1205 NONAME
?initialize@VDockableWindow@@IAEXXZ                          @1206 NONAME
?construct@VDockableWindow@@IAEXXZ                           @1207 NONAME
?constructUndockedWindow@VDockableWindow@@IAEXXZ             @1208 NONAME
?constructConfigurationMenu@VDockableWindow@@IAEXXZ          @1209 NONAME
?getDockSite@VDockableWindow@@QBEPAVVWindow@@XZ              @1210 NONAME
?getDockableWindow@VDockableWindow@@IBEPAVVWindow@@XZ        @1211 NONAME
?setDockedAttributes@VDockableWindow@@MAEXPAVVWindow@@@Z     @1212 NONAME
?setUndockedAttributes@VDockableWindow@@MAEXXZ               @1213 NONAME
?beginDrag@VDockableWindow@@MAEXXZ                           @1214 NONAME
?endDrag@VDockableWindow@@MAEXXZ                             @1215 NONAME
?docked@VDockableWindow@@MAEHPAVVWindow@@@Z                  @1216 NONAME
?undocked@VDockableWindow@@MAEHPAVVWindow@@@Z                @1217 NONAME
?dock@VDockableWindow@@UAEHPAVVWindow@@@Z                    @1218 NONAME
?undock@VDockableWindow@@UAEHHH@Z                            @1219 NONAME
?toggleDock@VDockableWindow@@QAEXXZ                          @1220 NONAME
?registerDockSite@VDockableWindow@@QAEXPAVVWindow@@@Z        @1221 NONAME
?unregisterDockSite@VDockableWindow@@QAEXPAVVWindow@@@Z      @1222 NONAME
?setUndockedCloseBehavior@VDockableWindow@@QAEXH@Z           @1223 NONAME
?getUndockedCloseBehavior@VDockableWindow@@QBEHXZ            @1224 NONAME
?setUndockedTitle@VDockableWindow@@QAEXABVVString@@@Z        @1225 NONAME
?getUndockedTitle@VDockableWindow@@QBEXAAVVString@@@Z        @1226 NONAME
?setUndockedSquare@VDockableWindow@@QAEXH@Z                  @1227 NONAME
?setUndockedCenter@VDockableWindow@@QAEXH@Z                  @1228 NONAME
?setUndockedPosition@VDockableWindow@@QAEXHH@Z               @1229 NONAME
?getUndockedPosition@VDockableWindow@@QBEXPAH0@Z             @1230 NONAME
?getDockedSize@VDockableWindow@@MBEXPAH0HHPAVVWindow@@@Z     @1231 NONAME
?getBestSquareSize@VDockableWindow@@IAEXPAVVWindow@@PAH1@Z   @1232 NONAME
?setUndockedNoClose@VDockableWindow@@QAEXH@Z                 @1233 NONAME
?setUndockedWindowMargins@VDockableWindow@@QAEXHHHH@Z        @1234 NONAME
?setUndockedDockedStyle@VDockableWindow@@IAEXH@Z             @1235 NONAME
?beginDragging@VDockableWindow@@IAEXHH@Z                     @1236 NONAME
?prepareForDragging@VDockableWindow@@IAEHXZ                  @1237 NONAME
?dragging@VDockableWindow@@IAEHAAH000HH@Z                    @1238 NONAME
?endDragging@VDockableWindow@@IAEHHHHHHHAAH@Z                @1239 NONAME
?overDockSite@VDockableWindow@@IAEPAVVWindow@@HHAAH000@Z     @1240 NONAME
?endResizing@VDockableWindow@@IAEHHHHHHAAH@Z                 @1241 NONAME
?frameWindow@VDockableWindow@@UAEXH@Z                        @1242 NONAME
?showBool@VDockableWindow@@UAEXHH@Z                          @1243 NONAME
?mouseDn@VDockableWindow@@MAEHHH@Z                           @1244 NONAME
?mouseDbl@VDockableWindow@@MAEHHH@Z                          @1245 NONAME
?rmouseDn@VDockableWindow@@MAEHHH@Z                          @1246 NONAME
?rmouseDnUndockedWindow@VDockableWindow@@IAEHHH@Z            @1247 NONAME
?newUndockedWindow@VDockableWindow@@MAEPAVVUtilityWindow@@PAVVWindow@@@Z @1248 NONAME
?newClientWindow@VDockableWindow@@MAEPAVVWindow@@PAV2@@Z     @1249 NONAME
?setClientWindow@VDockableWindow@@QAEXPAVVWindow@@@Z         @1250 NONAME
??0ConfigurationMenu@VDockableWindow@@QAE@XZ                 @1251 NONAME
?popup@ConfigurationMenu@VDockableWindow@@QAEXHHPAV2@@Z      @1252 NONAME
?poppedUp@ConfigurationMenu@VDockableWindow@@AAEXPAVVPopupMenu@@@Z @1253 NONAME
?poppedUpOptions@ConfigurationMenu@VDockableWindow@@AAEXPAVVPopupMenu@@@Z @1254 NONAME
?poppedUpOpaque@ConfigurationMenu@VDockableWindow@@AAEXPAVVPopupMenu@@@Z @1255 NONAME
?poppedUpSensitivity@ConfigurationMenu@VDockableWindow@@AAEXPAVVPopupMenu@@@Z @1256 NONAME
?poppedUpStyle@ConfigurationMenu@VDockableWindow@@AAEXPAVVPopupMenu@@@Z @1257 NONAME
?setMove@ConfigurationMenu@VDockableWindow@@AAEXPAVVMenuItem@@@Z @1258 NONAME
?setSize@ConfigurationMenu@VDockableWindow@@AAEXPAVVMenuItem@@@Z @1259 NONAME
?setDock@ConfigurationMenu@VDockableWindow@@AAEXPAVVMenuItem@@@Z @1260 NONAME
?setClose@ConfigurationMenu@VDockableWindow@@AAEXPAVVMenuItem@@@Z @1261 NONAME
?setOpaque@ConfigurationMenu@VDockableWindow@@AAEXPAVVMenuItem@@@Z @1262 NONAME
?setStyle@ConfigurationMenu@VDockableWindow@@AAEXPAVVMenuItem@@@Z @1263 NONAME
?setSensitivity@ConfigurationMenu@VDockableWindow@@AAEXPAVVMenuItem@@@Z @1264 NONAME
?putTo@VDockableWindow@@UAEXAAVVArchiver@@@Z                 @1265 NONAME
?putTo@VDockableWindow@@IAEXAAVVArchiver@@H@Z                @1266 NONAME
?getFrom@VDockableWindow@@UAEXAAVVArchiver@@@Z               @1267 NONAME
?getFrom@VDockableWindow@@UAEXAAVVArchiver@@PAVVObject@@H@Z  @1268 NONAME
?realize@VDockableWindow@@UAEXPAVVWindow@@@Z                 @1269 NONAME
?VDragManagerVDragManager@@YAPAXXZ                           @1270 NONAME
?iam@VDragManager@@UAEPAVVClass@@XZ                          @1271 NONAME
?VDragManagerRepVDragManagerRep@@YAPAXXZ                     @1272 NONAME
?iam@VDragManagerRep@@UAEPAVVClass@@XZ                       @1273 NONAME
?VDragManagerViewVDragManagerView@@YAPAXXZ                   @1274 NONAME
?iam@VDragManagerView@@UAEPAVVClass@@XZ                      @1275 NONAME
?VHandlerPairVHandlerPair@@YAPAXXZ                           @1276 NONAME
?iam@VHandlerPair@@UAEPAVVClass@@XZ                          @1277 NONAME
??0VDragManager@@QAE@XZ                                      @1278 NONAME
??0VDragManager@@QAE@H@Z                                     @1279 NONAME
??1VDragManager@@UAE@XZ                                      @1280 NONAME
?trackDrag@VDragManager@@QAEXPAVVWindow@@PAVVDragItem@@@Z    @1281 NONAME
?addHandler@VDragManager@@QAEXPAVVDragHandler@@PAVVWindow@@@Z @1282 NONAME
?removeHandler@VDragManager@@QAEXPAVVDragHandler@@PAVVWindow@@@Z @1283 NONAME
?removeHandlers@VDragManager@@QAEXPAVVWindow@@@Z             @1284 NONAME
?setneverDropCursor@VDragManager@@QAEXPAVVMouseCursor@@@Z    @1285 NONAME
??CVDragManager@@QAEPAV0@XZ                                  @1286 NONAME
??0VDragManagerRep@@QAE@XZ                                   @1287 NONAME
??1VDragManagerRep@@UAE@XZ                                   @1288 NONAME
?trackDrag@VDragManagerRep@@QAEXPAVVWindow@@PAVVDragItem@@@Z @1289 NONAME
?switchTarget@VDragManagerRep@@AAEXPAVVWindow@@@Z            @1290 NONAME
?switchHandler@VDragManagerRep@@AAEXPAVVWindow@@@Z           @1291 NONAME
?testHandler@VDragManagerRep@@AAEHPAVVWindow@@PAVVDragHandler@@@Z @1292 NONAME
?whichWin@VDragManagerRep@@AAEPAVVWindow@@HH@Z               @1293 NONAME
?mouseMv@VDragManagerRep@@AAEHHH@Z                           @1294 NONAME
?addHandler@VDragManagerRep@@QAEXPAVVDragHandler@@PAVVWindow@@@Z @1295 NONAME
?removeHandler@VDragManagerRep@@QAEXPAVVDragHandler@@PAVVWindow@@@Z @1296 NONAME
?removeHandlers@VDragManagerRep@@QAEXPAVVWindow@@@Z          @1297 NONAME
?setneverDropCursor@VDragManagerRep@@QAEXPAVVMouseCursor@@@Z @1298 NONAME
??0VDragManagerView@@QAE@PAVVDragManagerRep@@@Z              @1299 NONAME
??1VDragManagerView@@UAE@XZ                                  @1300 NONAME
?isHidden@VDragManagerView@@UAEHXZ                           @1301 NONAME
?mouseMv@VDragManagerView@@MAEHHHH@Z                         @1302 NONAME
??0VDragHandler@@QAE@XZ                                      @1303 NONAME
??1VDragHandler@@UAE@XZ                                      @1304 NONAME
?enterHandler@VDragHandler@@UAEXPAVVWindow@@PAVVDragItem@@@Z @1305 NONAME
?leaveHandler@VDragHandler@@UAEXPAVVWindow@@PAVVDragItem@@@Z @1306 NONAME
?enterWindow@VDragHandler@@UAEHPAVVWindow@@PAVVDragItem@@@Z  @1307 NONAME
?leaveWindow@VDragHandler@@UAEXPAVVWindow@@PAVVDragItem@@@Z  @1308 NONAME
?dropWindow@VDragHandler@@UAEHPAVVWindow@@PAVVDragItem@@@Z   @1309 NONAME
?inWindow@VDragHandler@@UAE?AW4DropMode@1@PAVVWindow@@PAVVDragItem@@HH@Z @1310 NONAME
?hiliteWindow@VDragHandler@@UAEXPAVVWindow@@H@Z              @1311 NONAME
?enterTrack@VDragHandler@@MAEXPAVVWindow@@PAVVDragItem@@@Z   @1312 NONAME
?leaveTrack@VDragHandler@@MAEXPAVVWindow@@PAVVDragItem@@@Z   @1313 NONAME
?inTrack@VDragHandler@@MAEHPAVVWindow@@PAVVDragItem@@HH@Z    @1314 NONAME
?acceptDrag@VDragHandler@@MAEHPAVVWindow@@PAVVDragItem@@@Z   @1315 NONAME
?acceptDrop@VDragHandler@@MAEHPAVVWindow@@PAVVDragItem@@@Z   @1316 NONAME
??0VDragItem@@QAE@XZ                                         @1317 NONAME
??1VDragItem@@QAE@XZ                                         @1318 NONAME
?contains@VDragItem@@QAEHPAVVClass@@@Z                       @1319 NONAME
?isEmpty@VDragItem@@QAEHXZ                                   @1320 NONAME
?clear@VDragItem@@QAEHXZ                                     @1321 NONAME
?put@VDragItem@@QAEHPAVVObject@@H@Z                          @1322 NONAME
?get@VDragItem@@QAEPAVVObject@@XZ                            @1323 NONAME
?hash@VHandlerPair@@UBEJXZ                                   @1324 NONAME
?isEqual@VHandlerPair@@UBEHPAVVObject@@@Z                    @1325 NONAME
??0VHandlerPair@@QAE@PAVVWindow@@PAVVDragHandler@@@Z         @1326 NONAME
?VDragSiteVDragSite@@YAPAXXZ                                 @1327 NONAME
?iam@VDragSite@@UAEPAVVClass@@XZ                             @1328 NONAME
??0VDragSite@@QAE@XZ                                         @1329 NONAME
??0VDragSite@@QAE@ABV0@@Z                                    @1330 NONAME
??1VDragSite@@UAE@XZ                                         @1331 NONAME
?uponDragStart@VDragSite@@QAEXPAVVObject@@P82@AEHXZ@Z        @1332 NONAME
?uponDropSiteFeedback@VDragSite@@QAEXPAVVObject@@P82@AEHXZ@Z @1333 NONAME
?dragStart@VDragSite@@MAEPAVVObjectCourier@@PAVVWindow@@HH@Z @1334 NONAME
?dropSiteFeedback@VDragSite@@MAEHJ@Z                         @1335 NONAME
?transferStart@VDragSite@@MAEHPAVVObjectCourier@@@Z          @1336 NONAME
?transferEnd@VDragSite@@MAEXPAVVObjectCourier@@@Z            @1337 NONAME
?registerWindow@VDragSite@@QAEHPAVVWindow@@@Z                @1338 NONAME
?unregisterWindow@VDragSite@@QAEXPAVVWindow@@@Z              @1339 NONAME
?dragLoop@VDragSite@@AAEHPAVVObjectCourier@@@Z               @1340 NONAME
?VDropSiteVDropSite@@YAPAXXZ                                 @1341 NONAME
?iam@VDropSite@@UAEPAVVClass@@XZ                             @1342 NONAME
??0VDropSite@@QAE@XZ                                         @1343 NONAME
??0VDropSite@@QAE@ABV0@@Z                                    @1344 NONAME
??1VDropSite@@UAE@XZ                                         @1345 NONAME
?uponDragObjectEnter@VDropSite@@QAEXPAVVObject@@P82@AEHXZ@Z  @1346 NONAME
?uponDragObjectExit@VDropSite@@QAEXPAVVObject@@P82@AEHXZ@Z   @1347 NONAME
?uponDragObjectOver@VDropSite@@QAEXPAVVObject@@P82@AEHXZ@Z   @1348 NONAME
?uponObjectDropped@VDropSite@@QAEXPAVVObject@@P82@AEHXZ@Z    @1349 NONAME
?dragObjectEnter@VDropSite@@MAEJXZ                           @1350 NONAME
?dragObjectExit@VDropSite@@MAEXXZ                            @1351 NONAME
?dragObjectOver@VDropSite@@MAEJHH@Z                          @1352 NONAME
?objectDropped@VDropSite@@MAEJHH@Z                           @1353 NONAME
?isValidType@VDropSite@@MBEHPAVVObjectCourier@@@Z            @1354 NONAME
?getNumberOfValidTypes@VDropSite@@MBEHXZ                     @1355 NONAME
?getValidOperations@VDropSite@@MBEHXZ                        @1356 NONAME
?registerWindow@VDropSite@@QAEHPAVVWindow@@@Z                @1357 NONAME
?unregisterWindow@VDropSite@@QAEXPAVVWindow@@@Z              @1358 NONAME
?VEditBoxVEditBox@@YAPAXXZ                                   @1359 NONAME
?iam@VEditBox@@UAEPAVVClass@@XZ                              @1360 NONAME
??1VEditBox@@UAE@XZ                                          @1361 NONAME
??0VEditBox@@QAE@XZ                                          @1362 NONAME
??0VEditBox@@QAE@ABVVFrame@@PAVVWindow@@ABVVStyle@@@Z        @1363 NONAME
??0VEditBox@@QAE@ABVVString@@ABVVFrame@@PAVVWindow@@ABVVStyle@@@Z @1364 NONAME
??0VEditBox@@QAE@IPAVVWindow@@@Z                             @1365 NONAME
?getInfo@VEditBox@@MAEXAAVVWinInfo@@@Z                       @1366 NONAME
?getCtlColor@VEditBox@@MAEIXZ                                @1367 NONAME
?getMinSize@VEditBox@@MAEXAAF0@Z                             @1368 NONAME
?clearChanged@VEditBox@@QAEXXZ                               @1369 NONAME
?setSel@VEditBox@@QAEXHH@Z                                   @1370 NONAME
?getSel@VEditBox@@QAEXPAH0@Z                                 @1371 NONAME
?clearSel@VEditBox@@QAEHPAVVMenuItem@@@Z                     @1372 NONAME
?copySel@VEditBox@@QAEHPAVVMenuItem@@@Z                      @1373 NONAME
?cutSel@VEditBox@@QAEHPAVVMenuItem@@@Z                       @1374 NONAME
?getText@VEditBox@@UAEHAAVVString@@@Z                        @1375 NONAME
?changed@VEditBox@@QAEHXZ                                    @1376 NONAME
?notify@VEditBox@@MAEHH@Z                                    @1377 NONAME
?paste@VEditBox@@QAEHPAVVMenuItem@@@Z                        @1378 NONAME
?resized@VEditBox@@UAEHHH@Z                                  @1379 NONAME
?selectAll@VEditBox@@QAEHPAVVMenuItem@@@Z                    @1380 NONAME
?setChanged@VEditBox@@QAEXH@Z                                @1381 NONAME
?stdEditMenu@VEditBox@@QAEPAVVPopupMenu@@XZ                  @1382 NONAME
?sizeOfText@VEditBox@@QAEHXZ                                 @1383 NONAME
?undo@VEditBox@@QAEHPAVVMenuItem@@@Z                         @1384 NONAME
?canUndo@VEditBox@@QBEHXZ                                    @1385 NONAME
?uponEvent@VEditBox@@QAEXPAVVObject@@P82@AEHXZ1@Z            @1386 NONAME
?uponChange@VEditBox@@QAEXPAVVObject@@P82@AEHXZ@Z            @1387 NONAME
?uponNoSpace@VEditBox@@QAEXPAVVObject@@P82@AEHXZ@Z           @1388 NONAME
?enterHit@VEditBox@@UAEHXZ                                   @1389 NONAME
?setTabs@VEditBox@@QAEXH@Z                                   @1390 NONAME
?setLimit@VEditBox@@QAEXI@Z                                  @1391 NONAME
?key@VEditBox@@UAEHHD@Z                                      @1392 NONAME
?nextFocus@VEditBox@@UAEHXZ                                  @1393 NONAME
?controlNextFocus@VEditBox@@UAEHXZ                           @1394 NONAME
?controlPrevFocus@VEditBox@@UAEHXZ                           @1395 NONAME
?takeFocus@VEditBox@@UAEHXZ                                  @1396 NONAME
?getText@VEditBox@@UAEHPADI@Z                                @1397 NONAME
?addVScroll@VEditBox@@QAEXH@Z                                @1398 NONAME
?addHScroll@VEditBox@@QAEXH@Z                                @1399 NONAME
?hasVScroll@VEditBox@@QBEHXZ                                 @1400 NONAME
?hasHScroll@VEditBox@@QBEHXZ                                 @1401 NONAME
?setReadOnly@VEditBox@@QAEXH@Z                               @1402 NONAME
?isReadOnly@VEditBox@@QBEHXZ                                 @1403 NONAME
?getPreferredSize@VEditBox@@UBEXPAH0@Z                       @1404 NONAME
?setFont@VEditBox@@UAEXPAVVFont@@@Z                          @1405 NONAME
?enableBool@VEditBox@@UAEXH@Z                                @1406 NONAME
?putTo@VEditBox@@UAEXAAVVArchiver@@@Z                        @1407 NONAME
?putTo@VEditBox@@IAEXAAVVArchiver@@H@Z                       @1408 NONAME
?getFrom@VEditBox@@UAEXAAVVArchiver@@@Z                      @1409 NONAME
?getFrom@VEditBox@@UAEXAAVVArchiver@@PAVVObject@@H@Z         @1410 NONAME
?realize@VEditBox@@UAEXPAVVWindow@@@Z                        @1411 NONAME
?VEditLineVEditLine@@YAPAXXZ                                 @1412 NONAME
?iam@VEditLine@@UAEPAVVClass@@XZ                             @1413 NONAME
??0VEditLine@@QAE@XZ                                         @1414 NONAME
??0VEditLine@@QAE@IPAVVWindow@@@Z                            @1415 NONAME
??0VEditLine@@QAE@ABVVFrame@@PAVVWindow@@ABVVStyle@@@Z       @1416 NONAME
??0VEditLine@@QAE@ABVVString@@ABVVFrame@@PAVVWindow@@ABVVStyle@@@Z @1417 NONAME
?getInfo@VEditLine@@MAEXAAVVWinInfo@@@Z                      @1418 NONAME
??1VEditLine@@UAE@XZ                                         @1419 NONAME
?getMinSize@VEditLine@@MAEXAAF0@Z                            @1420 NONAME
?enterHit@VEditLine@@UAEHXZ                                  @1421 NONAME
?getMin@VEditLine@@QAEXPAH0@Z                                @1422 NONAME
?takeFocus@VEditLine@@UAEHXZ                                 @1423 NONAME
?setHorizontalScroll@VEditLine@@QAEXH@Z                      @1424 NONAME
?getPreferredSize@VEditLine@@MBEXPAH0@Z                      @1425 NONAME
?putTo@VEditLine@@UAEXAAVVArchiver@@@Z                       @1426 NONAME
?putTo@VEditLine@@IAEXAAVVArchiver@@H@Z                      @1427 NONAME
?getFrom@VEditLine@@UAEXAAVVArchiver@@@Z                     @1428 NONAME
?getFrom@VEditLine@@UAEXAAVVArchiver@@PAVVObject@@H@Z        @1429 NONAME
?realize@VEditLine@@UAEXPAVVWindow@@@Z                       @1430 NONAME
?VEditLineNotifyVEditLineNotify@@YAPAXXZ                     @1431 NONAME
?iam@VEditLineNotify@@UAEPAVVClass@@XZ                       @1432 NONAME
??0VEditLineNotify@@QAE@XZ                                   @1433 NONAME
??0VEditLineNotify@@QAE@ABVVFrame@@PAVVWindow@@ABVVStyle@@@Z @1434 NONAME
??1VEditLineNotify@@UAE@XZ                                   @1435 NONAME
?enterHit@VEditLineNotify@@UAEHXZ                            @1436 NONAME
?escapeHit@VEditLineNotify@@UAEHXZ                           @1437 NONAME
?clearFocus@VEditLineNotify@@UAEHXZ                          @1438 NONAME
?uponAccept@VEditLineNotify@@QAEXPAVVObject@@P82@AEHXZ@Z     @1439 NONAME
?uponCancel@VEditLineNotify@@QAEXPAVVObject@@P82@AEHXZ@Z     @1440 NONAME
?VEllipseVEllipse@@YAPAXXZ                                   @1441 NONAME
?iam@VEllipse@@UAEPAVVClass@@XZ                              @1442 NONAME
??0VEllipse@@QAE@XZ                                          @1443 NONAME
??0VEllipse@@QAE@W4RectOpts@@HHHH@Z                          @1444 NONAME
?getHndl@VEllipse@@MAEPAUHRGN__@@XZ                          @1445 NONAME
?fill@VEllipse@@MAEXPAVVPort@@@Z                             @1446 NONAME
?invert@VEllipse@@MAEXPAVVPort@@@Z                           @1447 NONAME
??0VEvent@@QAE@XZ                                            @1448 NONAME
??1VEvent@@QAE@XZ                                            @1449 NONAME
??0VEvent@@QAE@IIJ@Z                                         @1450 NONAME
?VEventAtomVEventAtom@@YAPAXXZ                               @1451 NONAME
?iam@VEventAtom@@UAEPAVVClass@@XZ                            @1452 NONAME
??0VEventAtom@@QAE@XZ                                        @1453 NONAME
??0VEventAtom@@QAE@ABVVString@@H@Z                           @1454 NONAME
??1VEventAtom@@UAE@XZ                                        @1455 NONAME
??0VEventAtom@@QAE@ABV0@@Z                                   @1456 NONAME
??4VEventAtom@@QAEAAV0@ABV0@@Z                               @1457 NONAME
?hash@VEventAtom@@UBEJXZ                                     @1458 NONAME
?isEqual@VEventAtom@@UBEHPAVVObject@@@Z                      @1459 NONAME
?VEventManagerVEventManager@@YAPAXXZ                         @1460 NONAME
?iam@VEventManager@@UAEPAVVClass@@XZ                         @1461 NONAME
??0VEventManager@@QAE@XZ                                     @1462 NONAME
??0VEventManager@@QAE@H@Z                                    @1463 NONAME
??1VEventManager@@UAE@XZ                                     @1464 NONAME
?init@VEventManager@@AAEXXZ                                  @1465 NONAME
??CVEventManager@@QAEPAV0@XZ                                 @1466 NONAME
?publishEvent@VEventManager@@QAEPAVVEventAtom@@ABVVString@@H@Z @1467 NONAME
?publishEvent@VEventManager@@QAEPAVVEventAtom@@PAV2@@Z       @1468 NONAME
?unpublishEvent@VEventManager@@QAEPAVVEventAtom@@ABVVString@@@Z @1469 NONAME
?unpublishEvent@VEventManager@@QAEPAVVEventAtom@@PAV2@@Z     @1470 NONAME
?findEvent@VEventManager@@QAEPAVVEventAtom@@ABVVString@@@Z   @1471 NONAME
?subscribe@VEventManager@@QAEHABVVString@@PAVVObject@@P83@AEHXZ@Z @1472 NONAME
?subscribe@VEventManager@@QAEHABVVEventAtom@@PAVVObject@@P83@AEHXZ@Z @1473 NONAME
?unsubscribe@VEventManager@@QAEHABVVString@@PAVVObject@@P83@AEHXZ@Z @1474 NONAME
?unsubscribe@VEventManager@@QAEHABVVEventAtom@@PAVVObject@@P83@AEHXZ@Z @1475 NONAME
?subscribe@VEventManager@@QAEHABVVString@@PAVVObject@@1P83@AEHXZ@Z @1476 NONAME
?subscribe@VEventManager@@QAEHABVVEventAtom@@PAVVObject@@1P83@AEHXZ@Z @1477 NONAME
?unsubscribe@VEventManager@@QAEHABVVString@@PAVVObject@@1P83@AEHXZ@Z @1478 NONAME
?unsubscribe@VEventManager@@QAEHABVVEventAtom@@PAVVObject@@1P83@AEHXZ@Z @1479 NONAME
?removeAsSubscriber@VEventManager@@QAEXPAVVObject@@@Z        @1480 NONAME
?removeAsPublisher@VEventManager@@QAEXPAVVObject@@@Z         @1481 NONAME
?hasSubscriber@VEventManager@@QAEHABVVString@@@Z             @1482 NONAME
?hasSubscriber@VEventManager@@QAEHABVVEventAtom@@@Z          @1483 NONAME
?hasSubscriber@VEventManager@@QAEHABVVString@@PAVVObject@@@Z @1484 NONAME
?hasSubscriber@VEventManager@@QAEHABVVEventAtom@@PAVVObject@@@Z @1485 NONAME
?notify@VEventManager@@QAEHABVVEventAtom@@PAVVObject@@@Z     @1486 NONAME
?notify@VEventManager@@QAEHABVVString@@PAVVObject@@J@Z       @1487 NONAME
?notify@VEventManager@@QAEHABVVEventAtom@@PAVVObject@@J@Z    @1488 NONAME
?notify@VEventManager@@QAEHABVVEventAtom@@PAVVObject@@JJ@Z   @1489 NONAME
?getEventCollect@VEventManager@@AAEXABVVEventAtom@@PAVVObject@@AAVVOrdCollect@@@Z @1490 NONAME
?VEventAssocVEventAssoc@@YAPAXXZ                             @1491 NONAME
?iam@VEventAssoc@@UAEPAVVClass@@XZ                           @1492 NONAME
??0VEventAssoc@@QAE@XZ                                       @1493 NONAME
??0VEventAssoc@@QAE@PAVVObject@@0P81@AEHXZ@Z                 @1494 NONAME
??0VEventAssoc@@QAE@ABV0@@Z                                  @1495 NONAME
?hash@VEventAssoc@@UBEJXZ                                    @1496 NONAME
?isEqual@VEventAssoc@@UBEHPAVVObject@@@Z                     @1497 NONAME
?VExclusiveGroupVExclusiveGroup@@YAPAXXZ                     @1498 NONAME
?iam@VExclusiveGroup@@UAEPAVVClass@@XZ                       @1499 NONAME
??0VExclusiveGroup@@QAE@XZ                                   @1500 NONAME
??0VExclusiveGroup@@QAE@ABVVFrame@@PAVVWindow@@PADPAVVClass@@@Z @1501 NONAME
??0VExclusiveGroup@@QAE@ABVVString@@ABVVFrame@@PAVVWindow@@PADPAVVClass@@@Z @1502 NONAME
??0VExclusiveGroup@@QAE@IPAVVWindow@@@Z                      @1503 NONAME
??0VExclusiveGroup@@QAE@IIIPAVVWindow@@@Z                    @1504 NONAME
??1VExclusiveGroup@@UAE@XZ                                   @1505 NONAME
?clicked@VExclusiveGroup@@UAEHPAVVButton@@@Z                 @1506 NONAME
?arrowKey@VExclusiveGroup@@UAEHH@Z                           @1507 NONAME
?putTo@VExclusiveGroup@@UAEXAAVVArchiver@@@Z                 @1508 NONAME
?putTo@VExclusiveGroup@@IAEXAAVVArchiver@@H@Z                @1509 NONAME
?getFrom@VExclusiveGroup@@UAEXAAVVArchiver@@@Z               @1510 NONAME
?getFrom@VExclusiveGroup@@UAEXAAVVArchiver@@PAVVObject@@H@Z  @1511 NONAME
?realize@VExclusiveGroup@@UAEXPAVVWindow@@@Z                 @1512 NONAME
?VExclusiveStyleVExclusiveStyle@@YAPAXXZ                     @1513 NONAME
?iam@VExclusiveStyle@@UAEPAVVClass@@XZ                       @1514 NONAME
?setExclusive@VExclusiveStyle@@SAXQAPAV1@@Z                  @1515 NONAME
?set@VExclusiveStyle@@QAEXABV1@@Z                            @1516 NONAME
?add@VExclusiveStyle@@QAEXABV1@@Z                            @1517 NONAME
?remove@VExclusiveStyle@@QAEXABV1@@Z                         @1518 NONAME
?set@VExclusiveStyle@@UAEXABVVStyle@@@Z                      @1519 NONAME
?add@VExclusiveStyle@@UAEXABVVStyle@@@Z                      @1520 NONAME
?remove@VExclusiveStyle@@UAEXABVVStyle@@@Z                   @1521 NONAME
?getFrom@VExclusiveStyle@@UAEXAAVVArchiver@@@Z               @1522 NONAME
?putTo@VExclusiveStyle@@UAEXAAVVArchiver@@@Z                 @1523 NONAME
?VFileVFile@@YAPAXXZ                                         @1524 NONAME
?iam@VFile@@UAEPAVVClass@@XZ                                 @1525 NONAME
??0VFile@@QAE@XZ                                             @1526 NONAME
??0VFile@@QAE@ABVVString@@@Z                                 @1527 NONAME
??0VFile@@QAE@PBD@Z                                          @1528 NONAME
??0VFile@@QAE@W4fileMode@@@Z                                 @1529 NONAME
?init@VFile@@IAEXXZ                                          @1530 NONAME
??1VFile@@UAE@XZ                                             @1531 NONAME
?cleanFile@VFile@@QAEXXZ                                     @1532 NONAME
?close@VFile@@UAEXXZ                                         @1533 NONAME
?open@VFile@@QAEHW4fileMode@@PBD@Z                           @1534 NONAME
?open@VFile@@QAEHW4fileMode@@@Z                              @1535 NONAME
?openIt@VFile@@QAEHH@Z                                       @1536 NONAME
?modifyTime@VFile@@QAEJXZ                                    @1537 NONAME
?actualSize@VFile@@IAEJXZ                                    @1538 NONAME
?size@VFile@@UBEJXZ                                          @1539 NONAME
?flush@VFile@@QAEHXZ                                         @1540 NONAME
?fill@VFile@@QAEHXZ                                          @1541 NONAME
?at@VFile@@UAEJJ@Z                                           @1542 NONAME
?setPos@VFile@@UAEJJ@Z                                       @1543 NONAME
?getch@VFile@@UAEHXZ                                         @1544 NONAME
?getch@VFile@@UAEHAAG@Z                                      @1545 NONAME
?ungetch@VFile@@UAEXD@Z                                      @1546 NONAME
?ungetch@VFile@@UAEXG@Z                                      @1547 NONAME
?putch@VFile@@UAEHD@Z                                        @1548 NONAME
?putch@VFile@@UAEHG@Z                                        @1549 NONAME
?read@VFile@@UAEJPADJ@Z                                      @1550 NONAME
?read@VFile@@UAEJPAGJ@Z                                      @1551 NONAME
?read@VFile@@QAEJAAVVString@@J@Z                             @1552 NONAME
?write@VFile@@UAEJPBDJ@Z                                     @1553 NONAME
?write@VFile@@QAEJABVVString@@@Z                             @1554 NONAME
?write@VFile@@UAEJPBGJ@Z                                     @1555 NONAME
?truncAt@VFile@@UAEHXZ                                       @1556 NONAME
?truncAt@VFile@@UAEHJ@Z                                      @1557 NONAME
?at@VFile@@UAEJXZ                                            @1558 NONAME
?getPos@VFile@@UBEJXZ                                        @1559 NONAME
?eof@VFile@@UAEHXZ                                           @1560 NONAME
?empty@VFile@@UAEHXZ                                         @1561 NONAME
?breakAt@VFile@@UAEPAVVObject@@J@Z                           @1562 NONAME
?breakAt@VFile@@UAEPAVVObject@@XZ                            @1563 NONAME
?driveOf@VFile@@QAEPADXZ                                     @1564 NONAME
?directoryOf@VFile@@QAEPADXZ                                 @1565 NONAME
?nameOf@VFile@@QAEPADXZ                                      @1566 NONAME
?suffixOf@VFile@@QAEPADXZ                                    @1567 NONAME
?suffix@VFile@@QAEXPAD@Z                                     @1568 NONAME
?environ@VFile@@QAEXPAD@Z                                    @1569 NONAME
?VFileSelectVFileSelect@@YAPAXXZ                             @1570 NONAME
?iam@VFileSelect@@UAEPAVVClass@@XZ                           @1571 NONAME
?setRememberInitialPath@VFileSelect@@SAXH@Z                  @1572 NONAME
?isRememberInitialPath@VFileSelect@@SAHXZ                    @1573 NONAME
??0VFileSelect@@QAE@XZ                                       @1574 NONAME
??0VFileSelect@@QAE@W4DlgStyle@0@ABVVString@@AAVVPathString@@PAV2@AAH4PAVVWindow@@@Z @1575 NONAME
??0VFileSelect@@QAE@HPAD0PAPAVVString@@PAV1@PAVVWindow@@@Z   @1576 NONAME
??1VFileSelect@@UAE@XZ                                       @1577 NONAME
?dialog@VFileSelect@@SAHW4DlgStyle@1@ABVVString@@AAVVPathString@@PAVVWindow@@PAV3@PAH@Z @1578 NONAME
?dialog@VFileSelect@@SAPAVVString@@PAV2@0PADPAVVWindow@@1ZZ  @1579 NONAME
?dialog@VFileSelect@@SAPAVVString@@HPAV2@PADPAVVWindow@@1ZZ  @1580 NONAME
?dialog@VFileSelect@@SAPAVVString@@PAVVWindow@@PADPAV2@2@Z   @1581 NONAME
?dialog@VFileSelect@@SAPAVVString@@HPAVVWindow@@PADPAV2@@Z   @1582 NONAME
?dialog@VFileSelect@@SAHHAAVVPathString@@PADPAVVWindow@@1ZZ  @1583 NONAME
?processFilter@VFileSelect@@AAEXPAVVString@@@Z               @1584 NONAME
??RVFileSelect@@QAEHW4DlgStyle@0@ABVVString@@AAVVPathString@@PAV2@AAHPAVVWindow@@@Z @1585 NONAME
?VFontVFont@@YAPAXXZ                                         @1586 NONAME
?iam@VFont@@UAEPAVVClass@@XZ                                 @1587 NONAME
?useOldDefaultFont@VFont@@SAXH@Z                             @1588 NONAME
??0VFont@@QAE@XZ                                             @1589 NONAME
??0VFont@@QAE@H@Z                                            @1590 NONAME
??0VFont@@AAE@HH@Z                                           @1591 NONAME
??0VFont@@QAE@AAVVFontInfo@@@Z                               @1592 NONAME
??0VFont@@QAE@ABVVString@@HHHHH@Z                            @1593 NONAME
??0VFont@@AAE@AAUtagLOGFONTA@@@Z                             @1594 NONAME
??1VFont@@UAE@XZ                                             @1595 NONAME
?pointSize@VFont@@QAEXH@Z                                    @1596 NONAME
?face@VFont@@QAEXABVVString@@@Z                              @1597 NONAME
?orientation@VFont@@QAEXH@Z                                  @1598 NONAME
?bold@VFont@@QAEXH@Z                                         @1599 NONAME
?italic@VFont@@QAEXH@Z                                       @1600 NONAME
?underline@VFont@@QAEXH@Z                                    @1601 NONAME
?strikeOut@VFont@@QAEXH@Z                                    @1602 NONAME
?logfont@VFont@@QAEXAAUtagLOGFONTA@@@Z                       @1603 NONAME
?face@VFont@@QAEPADXZ                                        @1604 NONAME
?bold@VFont@@QAEHXZ                                          @1605 NONAME
?italic@VFont@@QAEHXZ                                        @1606 NONAME
?underline@VFont@@QAEHXZ                                     @1607 NONAME
?strikeOut@VFont@@QAEHXZ                                     @1608 NONAME
?height@VFont@@QAEHXZ                                        @1609 NONAME
?width@VFont@@QAEHXZ                                         @1610 NONAME
?maxWidth@VFont@@QAEFXZ                                      @1611 NONAME
?EnumFontFamProc@@YGHPAUtagENUMLOGFONTA@@PAUtagNEWTEXTMETRICA@@HPAUtagLOGFONTA@@@Z @1612 NONAME
?copyFace@VFont@@IAEXABVVString@@@Z                          @1613 NONAME
?bind@VFont@@QAEXPAVVObject@@H@Z                             @1614 NONAME
?getHndl@VFont@@QAEPAUHFONT__@@XZ                            @1615 NONAME
?make@VFont@@IAEHH@Z                                         @1616 NONAME
?make@VFont@@IAEHXZ                                          @1617 NONAME
?getActual@VFont@@IAEXXZ                                     @1618 NONAME
?select@VFont@@IAEPAUHFONT__@@PAUHDC__@@PAVVObject@@@Z       @1619 NONAME
?updateControls@VFont@@IAEXXZ                                @1620 NONAME
?getNativeWindowFont@VFont@@SAPAV1@PAVVWindow@@@Z            @1621 NONAME
?clean@VFont@@IAEXXZ                                         @1622 NONAME
?system@VFont@@SAAAV1@H@Z                                    @1623 NONAME
?system@VFont@@SAXHPAV1@@Z                                   @1624 NONAME
?newSystemFont@VFont@@KAPAV1@HHHHH@Z                         @1625 NONAME
?deleteSystemFonts@VFont@@SAXXZ                              @1626 NONAME
?replaceFont@VFont@@IAEXPAV1@@Z                              @1627 NONAME
?systemFontDeleted@VFont@@SAXPAV1@@Z                         @1628 NONAME
?systemFontsChanged@VFont@@SAXXZ                             @1629 NONAME
?VFontInfoVFontInfo@@YAPAXXZ                                 @1630 NONAME
?iam@VFontInfo@@UAEPAVVClass@@XZ                             @1631 NONAME
??0VFontInfo@@QAE@XZ                                         @1632 NONAME
??0VFontInfo@@QAE@PBVVFont@@@Z                               @1633 NONAME
??0VFontInfo@@QAE@ABV0@@Z                                    @1634 NONAME
??4VFontInfo@@QAEAAV0@ABV0@@Z                                @1635 NONAME
?init@VFontInfo@@AAEXPBVVFont@@@Z                            @1636 NONAME
??1VFontInfo@@UAE@XZ                                         @1637 NONAME
?putTo@VFontInfo@@UAEXAAVVArchiver@@@Z                       @1638 NONAME
?getFrom@VFontInfo@@UAEXAAVVArchiver@@@Z                     @1639 NONAME
?getFrom@VFontInfo@@UAEXAAVVArchiver@@PAVVObject@@H@Z        @1640 NONAME
?VFontSelectVFontSelect@@YAPAXXZ                             @1641 NONAME
?iam@VFontSelect@@UAEPAVVClass@@XZ                           @1642 NONAME
??0VFontSelect@@QAE@XZ                                       @1643 NONAME
??1VFontSelect@@UAE@XZ                                       @1644 NONAME
??0VFontSelect@@QAE@PAPAVVFont@@PAVVWindow@@AAHAAVVColor@@PAVVPrinter@@W4DlgStyle@0@@Z @1645 NONAME
??0VFontSelect@@QAE@HPAPAVVFont@@PAVVPrinter@@PAVVWindow@@@Z @1646 NONAME
??RVFontSelect@@QAEHPAPAVVFont@@PAVVWindow@@AAVVColor@@PAVVPrinter@@W4DlgStyle@0@@Z @1647 NONAME
?dialog@VFontSelect@@SAPAVVFont@@HPAVVWindow@@@Z             @1648 NONAME
?dialog@VFontSelect@@SAPAVVFont@@HPAVVPrinter@@PAVVWindow@@@Z @1649 NONAME
?dialog@VFontSelect@@SAHPAPAVVFont@@HPAVVWindow@@@Z          @1650 NONAME
?VFrameVFrame@@YAPAXXZ                                       @1651 NONAME
?iam@VFrame@@UAEPAVVClass@@XZ                                @1652 NONAME
??0VFrame@@QAE@XZ                                            @1653 NONAME
??0VFrame@@QAE@VVRatio@@0@Z                                  @1654 NONAME
??0VFrame@@QAE@VVRatio@@000W4RectOpts@@W4Units@0@@Z          @1655 NONAME
??0VFrame@@QAE@VVRatio@@000W4Units@0@@Z                      @1656 NONAME
?get@VFrame@@QAEXAAVVRatio@@000AAW4RectOpts@@@Z              @1657 NONAME
?set@VFrame@@QAEXVVRatio@@000W4RectOpts@@@Z                  @1658 NONAME
?get@VFrame@@QAEXABVVLocation@@AAVVRectangle@@@Z             @1659 NONAME
?copyTo@VFrame@@UAEHPAVVObject@@@Z                           @1660 NONAME
?copyFrom@VFrame@@UAEHPAVVObject@@@Z                         @1661 NONAME
??4VFrame@@QAEAAV0@AAVVRectangle@@@Z                         @1662 NONAME
?putTo@VFrame@@UAEXAAVVArchiver@@@Z                          @1663 NONAME
?getFrom@VFrame@@UAEXAAVVArchiver@@@Z                        @1664 NONAME
?getFrom@VFrame@@UAEXAAVVArchiver@@PAVVObject@@H@Z           @1665 NONAME
?noRatio@VFrame@@QAEHXZ                                      @1666 NONAME
?xlate@VFrame@@QAEXABVVLocation@@VVRatio@@1@Z                @1667 NONAME
?move@VFrame@@QAEXABVVLocation@@VVRatio@@1@Z                 @1668 NONAME
?resize@VFrame@@QAEXABVVLocation@@VVRatio@@1@Z               @1669 NONAME
??4VFrame@@QAEAAV0@ABV0@@Z                                   @1670 NONAME
?isRatio@VFrame@@QAEXAAH000@Z                                @1671 NONAME
?isFont16@VFrame@@QAEXAAH000@Z                               @1672 NONAME
?convertOpt@VFrame@@QAEXABVVLocation@@W4RectOpts@@@Z         @1673 NONAME
?setAsBefore@VFrame@@QAEXABVVLocation@@HHHH@Z                @1674 NONAME
?get@VFrame@@QAEXABVVLocation@@PAH111@Z                      @1675 NONAME
?get@VFrame@@QAEXPAVVWindow@@ABVVLocation@@PAH222@Z          @1676 NONAME
?VGeoColumnVGeoColumn@@YAPAXXZ                               @1677 NONAME
?iam@VGeoColumn@@UAEPAVVClass@@XZ                            @1678 NONAME
??0VGeoColumn@@QAE@ABVVFrame@@PAVVGeoManager@@@Z             @1679 NONAME
??0VGeoColumn@@QAE@HHHHPAVVGeoManager@@@Z                    @1680 NONAME
??0VGeoColumn@@QAE@HHPAVVGeoManager@@@Z                      @1681 NONAME
??0VGeoColumn@@QAE@PAVVGeoManager@@@Z                        @1682 NONAME
??0VGeoColumn@@QAE@ABVVFrame@@PAVVWindow@@@Z                 @1683 NONAME
??0VGeoColumn@@QAE@PAVVWindow@@@Z                            @1684 NONAME
??0VGeoColumn@@QAE@XZ                                        @1685 NONAME
?putTo@VGeoColumn@@UAEXAAVVArchiver@@@Z                      @1686 NONAME
?putTo@VGeoColumn@@MAEXAAVVArchiver@@H@Z                     @1687 NONAME
?getFrom@VGeoColumn@@UAEXAAVVArchiver@@PAVVObject@@H@Z       @1688 NONAME
?getFrom@VGeoColumn@@MAEXAAVVArchiver@@@Z                    @1689 NONAME
?VGeoFormVGeoForm@@YAPAXXZ                                   @1690 NONAME
?iam@VGeoForm@@UAEPAVVClass@@XZ                              @1691 NONAME
??0VGeoForm@@QAE@ABVVFrame@@PAVVGeoManager@@@Z               @1692 NONAME
??0VGeoForm@@QAE@HHHHPAVVGeoManager@@@Z                      @1693 NONAME
??0VGeoForm@@QAE@HHPAVVGeoManager@@@Z                        @1694 NONAME
??0VGeoForm@@QAE@PAVVGeoManager@@@Z                          @1695 NONAME
??0VGeoForm@@QAE@ABVVFrame@@PAVVWindow@@@Z                   @1696 NONAME
??0VGeoForm@@QAE@PAVVWindow@@@Z                              @1697 NONAME
??0VGeoForm@@QAE@XZ                                          @1698 NONAME
??1VGeoForm@@UAE@XZ                                          @1699 NONAME
?newChildData@VGeoForm@@MBEPAVChildData@VGeoFrame@@XZ        @1700 NONAME
?childUpdated@VGeoForm@@UAEXPAVVGeoFrame@@@Z                 @1701 NONAME
?childRemoved@VGeoForm@@UAEXPAVVGeoFrame@@@Z                 @1702 NONAME
?childReplaced@VGeoForm@@MAEXPAVVGeoFrame@@0@Z               @1703 NONAME
?frameChildrenOk@VGeoForm@@UAEHHH@Z                          @1704 NONAME
?frameChildren@VGeoForm@@UAEXHH@Z                            @1705 NONAME
?getPreferredSize@VGeoForm@@UAEXPAH0@Z                       @1706 NONAME
?getConstrainedSize@VGeoForm@@UAEHPAH0HH@Z                   @1707 NONAME
?getMinimumSize@VGeoForm@@UAEXPAH0@Z                         @1708 NONAME
?attachChild@VGeoForm@@QAEHPAVVGeoFrame@@W4Side@1@W4Type@1@0H@Z @1709 NONAME
?unattachChild@VGeoForm@@QAEXPAVVGeoFrame@@W4Side@1@@Z       @1710 NONAME
?unattachChild@VGeoForm@@QAEXPAVVGeoFrame@@@Z                @1711 NONAME
?unattachChild@VGeoForm@@QAEXPAVVWindow@@W4Side@1@@Z         @1712 NONAME
?unattachChild@VGeoForm@@QAEXPAVVWindow@@@Z                  @1713 NONAME
?detachChild@VGeoForm@@QAEXPAVVGeoFrame@@@Z                  @1714 NONAME
?getAttachments@VGeoForm@@QBEPAVAttachment@1@PAVVGeoFrame@@@Z @1715 NONAME
??1FormChildData@VGeoForm@@UAE@XZ                            @1716 NONAME
?getPreferredSizeWithChildren@VGeoForm@@IAEXPAH0HHH@Z        @1717 NONAME
?setupChild@VGeoForm@@IAEHPAVVGeoFrame@@HH@Z                 @1718 NONAME
?setupChildGeometry@VGeoForm@@IAEHPAVVGeoFrame@@HHHHAAH@Z    @1719 NONAME
?oldAttachWin@VGeoForm@@SAHPAVVWindow@@0W4Side@VAttach@@W4Type@4@H0@Z @1720 NONAME
?oldSetAttach@VGeoForm@@SAHPAVVWindow@@W4Side@VAttach@@W4Type@4@H0@Z @1721 NONAME
?oldGetAttach@VGeoForm@@SAPAVVAttach@@PBVVWindow@@@Z         @1722 NONAME
?oldDetachWin@VGeoForm@@SAXPAVVWindow@@0@Z                   @1723 NONAME
?oldToNewArchiveConversion@VGeoForm@@SAHPAVVWindow@@@Z       @1724 NONAME
?putTo@VGeoForm@@UAEXAAVVArchiver@@@Z                        @1725 NONAME
?putTo@VGeoForm@@MAEXAAVVArchiver@@H@Z                       @1726 NONAME
?getFrom@VGeoForm@@UAEXAAVVArchiver@@PAVVObject@@H@Z         @1727 NONAME
?getFrom@VGeoForm@@MAEXAAVVArchiver@@@Z                      @1728 NONAME
?gotChildren@VGeoForm@@MAEXXZ                                @1729 NONAME
?putTo@FormChildData@VGeoForm@@UAEXAAVVArchiver@@@Z          @1730 NONAME
?getFrom@FormChildData@VGeoForm@@UAEXAAVVArchiver@@@Z        @1731 NONAME
?putTo@Attachment@VGeoForm@@UAEXAAVVArchiver@@@Z             @1732 NONAME
?getFrom@Attachment@VGeoForm@@UAEXAAVVArchiver@@@Z           @1733 NONAME
?VGeoFrameVGeoFrame@@YAPAXXZ                                 @1734 NONAME
?iam@VGeoFrame@@UAEPAVVClass@@XZ                             @1735 NONAME
??0VGeoFrame@@QAE@ABVVFrame@@PAVVGeoManager@@@Z              @1736 NONAME
??0VGeoFrame@@QAE@HHHHPAVVGeoManager@@@Z                     @1737 NONAME
??0VGeoFrame@@QAE@HHPAVVGeoManager@@@Z                       @1738 NONAME
??0VGeoFrame@@QAE@PAVVGeoManager@@@Z                         @1739 NONAME
??0VGeoFrame@@QAE@ABVVFrame@@PAVVWindow@@@Z                  @1740 NONAME
??0VGeoFrame@@QAE@HHHHPAVVWindow@@@Z                         @1741 NONAME
??0VGeoFrame@@QAE@HHPAVVWindow@@@Z                           @1742 NONAME
??0VGeoFrame@@QAE@PAVVWindow@@@Z                             @1743 NONAME
??0VGeoFrame@@QAE@XZ                                         @1744 NONAME
??1VGeoFrame@@UAE@XZ                                         @1745 NONAME
?initialize@VGeoFrame@@IAEXXZ                                @1746 NONAME
?getIndex@VGeoFrame@@QBEHXZ                                  @1747 NONAME
?setFrame@VGeoFrame@@QAEXABVVFrame@@@Z                       @1748 NONAME
?getFrame@VGeoFrame@@QBEPAVVFrame@@XZ                        @1749 NONAME
?associateWindow@VGeoFrame@@QAEHPAVVWindow@@@Z               @1750 NONAME
?windowAssociated@VGeoFrame@@MAEXPAVVWindow@@@Z              @1751 NONAME
?verifyManager@VGeoFrame@@KAHPAVVWindow@@@Z                  @1752 NONAME
?frame@VGeoFrame@@QAEXH@Z                                    @1753 NONAME
?update@VGeoFrame@@UAEXH@Z                                   @1754 NONAME
?hasChildren@VGeoFrame@@QBEHXZ                               @1755 NONAME
?getPreferredSize@VGeoFrame@@UAEXPAH0@Z                      @1756 NONAME
?getConstrainedSize@VGeoFrame@@UAEHPAH0HH@Z                  @1757 NONAME
?getMinimumSize@VGeoFrame@@UAEXPAH0@Z                        @1758 NONAME
?getMaximumSize@VGeoFrame@@UAEXPAH0@Z                        @1759 NONAME
?addNonClientAreaSize@VGeoFrame@@QAEXPAH0@Z                  @1760 NONAME
?newChildData@VGeoFrame@@MBEPAVChildData@1@XZ                @1761 NONAME
?determinePreferredSize@VGeoFrame@@QAEXPAH0@Z                @1762 NONAME
?determineConstrainedSize@VGeoFrame@@QAEXPAH0HH@Z            @1763 NONAME
?determineMinimumSize@VGeoFrame@@QAEXPAH0@Z                  @1764 NONAME
?determineMaximumSize@VGeoFrame@@QAEXPAH0@Z                  @1765 NONAME
?getSize@VGeoFrame@@QAEXPAH0HHH@Z                            @1766 NONAME
?getGeometry@VGeoFrame@@QAEXPAVGeoComponent@1@000HHH@Z       @1767 NONAME
?completeGeometry@VGeoFrame@@QAEXPAVGeoComponent@1@000HHH@Z  @1768 NONAME
?getParentWindow@VGeoFrame@@QBEPAVVWindow@@XZ                @1769 NONAME
?translateToWindowLocation@VGeoFrame@@QAEXAAH0@Z             @1770 NONAME
?getPhysicalClientSize@VGeoFrame@@QAEXPAH0@Z                 @1771 NONAME
?getPhysicalGeometry@VGeoFrame@@QAEXPAH000@Z                 @1772 NONAME
?setPhysicalSize@VGeoFrame@@QAEXHH@Z                         @1773 NONAME
?setPhysicalGeometry@VGeoFrame@@QAEXHHHH@Z                   @1774 NONAME
?moveWindowChildren@VGeoFrame@@QAEXHH@Z                      @1775 NONAME
?putTo@VGeoFrame@@UAEXAAVVArchiver@@@Z                       @1776 NONAME
?putTo@VGeoFrame@@MAEXAAVVArchiver@@H@Z                      @1777 NONAME
?putToDone@VGeoFrame@@MAEXAAVVArchiver@@@Z                   @1778 NONAME
?getFrom@VGeoFrame@@UAEXAAVVArchiver@@PAVVObject@@H@Z        @1779 NONAME
?getFrom@VGeoFrame@@MAEXAAVVArchiver@@@Z                     @1780 NONAME
?getFromDone@VGeoFrame@@MAEXAAVVArchiver@@PAVVObject@@@Z     @1781 NONAME
?getFromDone@VGeoFrame@@SAXPAVVWindow@@@Z                    @1782 NONAME
?getWindowIndex@VGeoFrame@@KAHPAVVWindow@@@Z                 @1783 NONAME
?putTo@Geometry@VGeoFrame@@UAEXAAVVArchiver@@@Z              @1784 NONAME
?getFrom@Geometry@VGeoFrame@@UAEXAAVVArchiver@@@Z            @1785 NONAME
?VGeoManagerVGeoManager@@YAPAXXZ                             @1786 NONAME
?iam@VGeoManager@@UAEPAVVClass@@XZ                           @1787 NONAME
??0VGeoManager@@QAE@ABVVFrame@@PAV0@@Z                       @1788 NONAME
??0VGeoManager@@QAE@HHHHPAV0@@Z                              @1789 NONAME
??0VGeoManager@@QAE@HHPAV0@@Z                                @1790 NONAME
??0VGeoManager@@QAE@PAV0@@Z                                  @1791 NONAME
??0VGeoManager@@QAE@ABVVFrame@@PAVVWindow@@@Z                @1792 NONAME
??0VGeoManager@@QAE@HHHHPAVVWindow@@@Z                       @1793 NONAME
??0VGeoManager@@QAE@HHPAVVWindow@@@Z                         @1794 NONAME
??0VGeoManager@@QAE@PAVVWindow@@@Z                           @1795 NONAME
??0VGeoManager@@QAE@XZ                                       @1796 NONAME
??1VGeoManager@@UAE@XZ                                       @1797 NONAME
?addChild@VGeoManager@@QAEPAVVGeoFrame@@PAV2@@Z              @1798 NONAME
?addChild@VGeoManager@@QAEPAVVGeoFrame@@PAVVWindow@@@Z       @1799 NONAME
?removeChild@VGeoManager@@QAEHPAVVGeoFrame@@@Z               @1800 NONAME
?removeChild@VGeoManager@@QAEHPAVVWindow@@@Z                 @1801 NONAME
?replaceChild@VGeoManager@@QAEHPAVVGeoFrame@@0@Z             @1802 NONAME
?moveChildren@VGeoManager@@QAEHPAV1@H@Z                      @1803 NONAME
?moveChild@VGeoManager@@QAEHPAVVGeoFrame@@PAV1@H@Z           @1804 NONAME
?findChild@VGeoManager@@QBEHPAVVGeoFrame@@@Z                 @1805 NONAME
?getPreferredSize@VGeoManager@@UAEXPAH0@Z                    @1806 NONAME
?getConstrainedSize@VGeoManager@@UAEHPAH0HH@Z                @1807 NONAME
?getMinimumSize@VGeoManager@@UAEXPAH0@Z                      @1808 NONAME
?getMaximumSize@VGeoManager@@UAEXPAH0@Z                      @1809 NONAME
?update@VGeoManager@@UAEXH@Z                                 @1810 NONAME
?childUpdated@VGeoManager@@MAEXPAVVGeoFrame@@@Z              @1811 NONAME
?childRemoved@VGeoManager@@MAEXPAVVGeoFrame@@@Z              @1812 NONAME
?childReplaced@VGeoManager@@MAEXPAVVGeoFrame@@0@Z            @1813 NONAME
?windowAssociated@VGeoManager@@MAEXPAVVWindow@@@Z            @1814 NONAME
?setInternalBorderGeometry@VGeoManager@@QAEXHHHH@Z           @1815 NONAME
?getInternalBorderGeometry@VGeoManager@@QBEXPAH000@Z         @1816 NONAME
?frameChildrenOk@VGeoManager@@UAEHHH@Z                       @1817 NONAME
?frameChildren@VGeoManager@@UAEXHH@Z                         @1818 NONAME
?resized@VGeoManager@@QAEXHH@Z                               @1819 NONAME
?beginFrameChildren@VGeoManager@@IAEXAAH0@Z                  @1820 NONAME
?setupSizeGroups@VGeoManager@@IAEXXZ                         @1821 NONAME
?endFrameChildren@VGeoManager@@IAEXXZ                        @1822 NONAME
?subtractInternalBorderSize@VGeoManager@@IAEXPAH0@Z          @1823 NONAME
?checkWindowPreferredSize@VGeoManager@@IAEXPAH0@Z            @1824 NONAME
?checkWindowConstrainedSize@VGeoManager@@IAEXPAH0HH@Z        @1825 NONAME
?checkWindowMinimumSize@VGeoManager@@IAEXPAH0@Z              @1826 NONAME
?checkWindowMaximumSize@VGeoManager@@IAEXPAH0@Z              @1827 NONAME
?associateWindow@VGeoManager@@QAEHPAVVWindow@@@Z             @1828 NONAME
?begin@ChildIterator@VGeoManager@@QAEXPBVVGeoFrame@@@Z       @1829 NONAME
?next@ChildIterator@VGeoManager@@QAEPAVVGeoFrame@@XZ         @1830 NONAME
??0SizeGroup@VGeoManager@@QAE@H@Z                            @1831 NONAME
??1SizeGroup@VGeoManager@@UAE@XZ                             @1832 NONAME
?setType@SizeGroup@VGeoManager@@QAEXH@Z                      @1833 NONAME
?getType@SizeGroup@VGeoManager@@QBE?AW4SizeGroupType@2@XZ    @1834 NONAME
?add@SizeGroup@VGeoManager@@QAEXPAVVGeoFrame@@@Z             @1835 NONAME
?add@SizeGroup@VGeoManager@@QAEXPAVVWindow@@@Z               @1836 NONAME
?remove@SizeGroup@VGeoManager@@QAEXPAVVGeoFrame@@@Z          @1837 NONAME
?remove@SizeGroup@VGeoManager@@QAEXPAVVWindow@@@Z            @1838 NONAME
?removeAll@SizeGroup@VGeoManager@@QAEXXZ                     @1839 NONAME
?getList@SizeGroup@VGeoManager@@QBEPAVVOrdCollect@@XZ        @1840 NONAME
?newSizeGroup@VGeoManager@@QAEPAVSizeGroup@1@H@Z             @1841 NONAME
?putTo@VGeoManager@@UAEXAAVVArchiver@@@Z                     @1842 NONAME
?putTo@VGeoManager@@MAEXAAVVArchiver@@H@Z                    @1843 NONAME
?putToDone@VGeoManager@@MAEXAAVVArchiver@@@Z                 @1844 NONAME
?getFrom@VGeoManager@@UAEXAAVVArchiver@@PAVVObject@@H@Z      @1845 NONAME
?getFrom@VGeoManager@@MAEXAAVVArchiver@@@Z                   @1846 NONAME
?getFromDone@VGeoManager@@MAEXAAVVArchiver@@PAVVObject@@@Z   @1847 NONAME
?gotChildren@VGeoManager@@MAEXXZ                             @1848 NONAME
?VGeoRowOrColumnVGeoRowOrColumn@@YAPAXXZ                     @1849 NONAME
?iam@VGeoRowOrColumn@@UAEPAVVClass@@XZ                       @1850 NONAME
??ARowOrColumnDataArray@@QAEAAURowOrColumnData@@H@Z          @1851 NONAME
??0VGeoRowOrColumn@@QAE@W4Dimension@0@ABVVFrame@@PAVVGeoManager@@@Z @1852 NONAME
??0VGeoRowOrColumn@@QAE@W4Dimension@0@HHHHPAVVGeoManager@@@Z @1853 NONAME
??0VGeoRowOrColumn@@QAE@W4Dimension@0@HHPAVVGeoManager@@@Z   @1854 NONAME
??0VGeoRowOrColumn@@QAE@W4Dimension@0@PAVVGeoManager@@@Z     @1855 NONAME
??0VGeoRowOrColumn@@QAE@W4Dimension@0@ABVVFrame@@PAVVWindow@@@Z @1856 NONAME
??0VGeoRowOrColumn@@QAE@W4Dimension@0@PAVVWindow@@@Z         @1857 NONAME
??0VGeoRowOrColumn@@QAE@W4Dimension@0@@Z                     @1858 NONAME
??0VGeoRowOrColumn@@QAE@XZ                                   @1859 NONAME
??1VGeoRowOrColumn@@UAE@XZ                                   @1860 NONAME
?initialize@VGeoRowOrColumn@@IAEXW4Dimension@1@@Z            @1861 NONAME
?setMargins@VGeoRowOrColumn@@QAEXH@Z                         @1862 NONAME
?setMargins@VGeoRowOrColumn@@QAEXHH@Z                        @1863 NONAME
?setMargins@VGeoRowOrColumn@@QAEXHHHH@Z                      @1864 NONAME
?getMargins@VGeoRowOrColumn@@QBEXPAH000@Z                    @1865 NONAME
?setDimension@VGeoRowOrColumn@@QAEHW4Dimension@1@@Z          @1866 NONAME
?setDefaultChildMargins@VGeoRowOrColumn@@QAEXH@Z             @1867 NONAME
?setDefaultChildMargins@VGeoRowOrColumn@@QAEXHH@Z            @1868 NONAME
?setDefaultChildMargins@VGeoRowOrColumn@@QAEXHHHH@Z          @1869 NONAME
?getDefaultChildMargins@VGeoRowOrColumn@@QBEXPAH000@Z        @1870 NONAME
?setChildrenJustifyStyle@VGeoRowOrColumn@@QAEXW4JustifyStyle@1@@Z @1871 NONAME
?setChildJustifyStyle@VGeoRowOrColumn@@QAEXHW4JustifyStyle@1@@Z @1872 NONAME
?getChildJustifyStyle@VGeoRowOrColumn@@QBE?AW4JustifyStyle@1@H@Z @1873 NONAME
?setChildrenJustify@VGeoRowOrColumn@@QAEXW4JustifyStyle@1@@Z @1874 NONAME
?setChildJustify@VGeoRowOrColumn@@QAEXHW4JustifyStyle@1@@Z   @1875 NONAME
?getChildJustify@VGeoRowOrColumn@@QBE?AW4JustifyStyle@1@H@Z  @1876 NONAME
?setChildrenMargins@VGeoRowOrColumn@@QAEXH@Z                 @1877 NONAME
?setChildrenMargins@VGeoRowOrColumn@@QAEXHH@Z                @1878 NONAME
?setChildrenMargins@VGeoRowOrColumn@@QAEXHHHH@Z              @1879 NONAME
?setChildMargins@VGeoRowOrColumn@@QAEXHHHHH@Z                @1880 NONAME
?setChildMargins@VGeoRowOrColumn@@QAEXHH@Z                   @1881 NONAME
?setChildMargins@VGeoRowOrColumn@@QAEXHHH@Z                  @1882 NONAME
?getChildMargins@VGeoRowOrColumn@@QBEXHPAH000@Z              @1883 NONAME
?setChildrenStretchability@VGeoRowOrColumn@@QAEXM@Z          @1884 NONAME
?setChildStretchability@VGeoRowOrColumn@@QAEXHM@Z            @1885 NONAME
?getChildStretchability@VGeoRowOrColumn@@QBEMH@Z             @1886 NONAME
?setChildrenShrinkability@VGeoRowOrColumn@@QAEXM@Z           @1887 NONAME
?setChildShrinkability@VGeoRowOrColumn@@QAEXHM@Z             @1888 NONAME
?getChildShrinkability@VGeoRowOrColumn@@QBEMH@Z              @1889 NONAME
?setChildrenMinorStretchability@VGeoRowOrColumn@@QAEXM@Z     @1890 NONAME
?setChildMinorStretchability@VGeoRowOrColumn@@QAEXHM@Z       @1891 NONAME
?getChildMinorStretchability@VGeoRowOrColumn@@QBEMH@Z        @1892 NONAME
?setChildrenMinorShrinkability@VGeoRowOrColumn@@QAEXM@Z      @1893 NONAME
?setChildMinorShrinkability@VGeoRowOrColumn@@QAEXHM@Z        @1894 NONAME
?getChildMinorShrinkability@VGeoRowOrColumn@@QBEMH@Z         @1895 NONAME
?newChildData@VGeoRowOrColumn@@UBEPAVChildData@VGeoFrame@@XZ @1896 NONAME
?getPreferredSize@VGeoRowOrColumn@@UAEXPAH0@Z                @1897 NONAME
?getConstrainedSize@VGeoRowOrColumn@@UAEHPAH0HH@Z            @1898 NONAME
?getMinimumSize@VGeoRowOrColumn@@UAEXPAH0@Z                  @1899 NONAME
?getPreferredSizeWithChildren@VGeoRowOrColumn@@IAEXPAH0HHH@Z @1900 NONAME
?getNumberOfRowsOrColumns@VGeoRowOrColumn@@QBEHXZ            @1901 NONAME
?frameChildren@VGeoRowOrColumn@@UAEXHH@Z                     @1902 NONAME
?setupLayoutData@VGeoRowOrColumn@@IAEXPAXHH@Z                @1903 NONAME
?setupRowOrColumnData@VGeoRowOrColumn@@IAEHAAVChildIterator@VGeoManager@@PAXH@Z @1904 NONAME
?layoutFromData@VGeoRowOrColumn@@IAEXPAXH@Z                  @1905 NONAME
?setupChildSize@VGeoRowOrColumn@@IAEXPAVVGeoFrame@@PAH1H@Z   @1906 NONAME
?putTo@VGeoRowOrColumn@@UAEXAAVVArchiver@@@Z                 @1907 NONAME
?putTo@VGeoRowOrColumn@@MAEXAAVVArchiver@@H@Z                @1908 NONAME
?getFrom@VGeoRowOrColumn@@UAEXAAVVArchiver@@PAVVObject@@H@Z  @1909 NONAME
?getFrom@VGeoRowOrColumn@@MAEXAAVVArchiver@@@Z               @1910 NONAME
?putTo@RowOrColumnChildData@VGeoRowOrColumn@@UAEXAAVVArchiver@@@Z @1911 NONAME
?getFrom@RowOrColumnChildData@VGeoRowOrColumn@@UAEXAAVVArchiver@@@Z @1912 NONAME
?VGeoRowVGeoRow@@YAPAXXZ                                     @1913 NONAME
?iam@VGeoRow@@UAEPAVVClass@@XZ                               @1914 NONAME
??0VGeoRow@@QAE@ABVVFrame@@PAVVGeoManager@@@Z                @1915 NONAME
??0VGeoRow@@QAE@HHHHPAVVGeoManager@@@Z                       @1916 NONAME
??0VGeoRow@@QAE@HHPAVVGeoManager@@@Z                         @1917 NONAME
??0VGeoRow@@QAE@PAVVGeoManager@@@Z                           @1918 NONAME
??0VGeoRow@@QAE@ABVVFrame@@PAVVWindow@@@Z                    @1919 NONAME
??0VGeoRow@@QAE@PAVVWindow@@@Z                               @1920 NONAME
??0VGeoRow@@QAE@XZ                                           @1921 NONAME
?putTo@VGeoRow@@UAEXAAVVArchiver@@@Z                         @1922 NONAME
?putTo@VGeoRow@@MAEXAAVVArchiver@@H@Z                        @1923 NONAME
?getFrom@VGeoRow@@UAEXAAVVArchiver@@PAVVObject@@H@Z          @1924 NONAME
?getFrom@VGeoRow@@MAEXAAVVArchiver@@@Z                       @1925 NONAME
?VGlobalVGlobal@@YAPAXXZ                                     @1926 NONAME
?iam@VGlobal@@UAEPAVVClass@@XZ                               @1927 NONAME
??0VGlobal@@QAE@XZ                                           @1928 NONAME
??1VGlobal@@UAE@XZ                                           @1929 NONAME
??0VGlobal@@QAE@I@Z                                          @1930 NONAME
?lookup@VGlobal@@QAEPAV1@I@Z                                 @1931 NONAME
?isEqual@VGlobal@@UBEHPAVVObject@@@Z                         @1932 NONAME
?hash@VGlobal@@UBEJXZ                                        @1933 NONAME
?returnFirstLikeThis@VGlobal@@SAPAV1@I@Z                     @1934 NONAME
?VGroupVGroup@@YAPAXXZ                                       @1935 NONAME
?iam@VGroup@@UAEPAVVClass@@XZ                                @1936 NONAME
??1VGroup@@UAE@XZ                                            @1937 NONAME
?getInfo@VGroup@@MAEXAAVVWinInfo@@@Z                         @1938 NONAME
?getMinSize@VGroup@@MAEXAAF0@Z                               @1939 NONAME
??0VGroup@@QAE@XZ                                            @1940 NONAME
??0VGroup@@QAE@IPAVVWindow@@@Z                               @1941 NONAME
??0VGroup@@QAE@ABVVFrame@@PAVVWindow@@PAD@Z                  @1942 NONAME
??0VGroup@@QAE@ABVVString@@ABVVFrame@@PAVVWindow@@PAD@Z      @1943 NONAME
?addControl@VGroup@@UAEXPAVVControl@@@Z                      @1944 NONAME
?getFocusCandidate@VGroup@@UBEPAVVWindow@@H@Z                @1945 NONAME
?setChildFocus@VGroup@@UAEXPAVVWindow@@@Z                    @1946 NONAME
?getNextChild@VGroup@@IBEPAVVWindow@@PAV2@@Z                 @1947 NONAME
?getPrevChild@VGroup@@IBEPAVVWindow@@PAV2@@Z                 @1948 NONAME
?getFirstChild@VGroup@@IBEPAVVWindow@@XZ                     @1949 NONAME
?getLastChild@VGroup@@IBEPAVVWindow@@XZ                      @1950 NONAME
?getNextChildIndex@VGroup@@IBEHPAVVWindow@@@Z                @1951 NONAME
?getPrevChildIndex@VGroup@@IBEHPAVVWindow@@@Z                @1952 NONAME
?getFirstChildIndex@VGroup@@IBEHXZ                           @1953 NONAME
?getLastChildIndex@VGroup@@IBEHXZ                            @1954 NONAME
?key@VGroup@@UAEHHD@Z                                        @1955 NONAME
?arrowKey@VGroup@@UAEHH@Z                                    @1956 NONAME
?getCurrent@VGroup@@QAEHXZ                                   @1957 NONAME
?setCurrent@VGroup@@UAEXH@Z                                  @1958 NONAME
?winType@VGroup@@UAE?AW4WinType@@XZ                          @1959 NONAME
?getControl@VGroup@@QAEPAVVControl@@H@Z                      @1960 NONAME
?getPreferredSize@VGroup@@UBEXPAH0@Z                         @1961 NONAME
?getInternalBorderGeometry@VGroup@@UBEXPAH000@Z              @1962 NONAME
?getCtlColor@VGroup@@UAEIXZ                                  @1963 NONAME
?has3dEffects@VGroup@@UBEHXZ                                 @1964 NONAME
?has3dEffects@VGroup@@UBEHW4V_3D_EFFECTS@@@Z                 @1965 NONAME
?addControlsFromChildIndices@VGroup@@IAEXXZ                  @1966 NONAME
?putTo@VGroup@@UAEXAAVVArchiver@@@Z                          @1967 NONAME
?putTo@VGroup@@IAEXAAVVArchiver@@H@Z                         @1968 NONAME
?getFrom@VGroup@@UAEXAAVVArchiver@@@Z                        @1969 NONAME
?getFrom@VGroup@@UAEXAAVVArchiver@@PAVVObject@@H@Z           @1970 NONAME
?realize@VGroup@@UAEXPAVVWindow@@@Z                          @1971 NONAME
?VGroupBoxVGroupBox@@YAPAXXZ                                 @1972 NONAME
?iam@VGroupBox@@UAEPAVVClass@@XZ                             @1973 NONAME
??0VGroupBox@@QAE@XZ                                         @1974 NONAME
??0VGroupBox@@QAE@PAVVWindow@@PBD@Z                          @1975 NONAME
??0VGroupBox@@QAE@ABVVFrame@@PAVVWindow@@PBD@Z               @1976 NONAME
??0VGroupBox@@QAE@PAVVWindow@@ABVVStyle@@PBD@Z               @1977 NONAME
??0VGroupBox@@QAE@ABVVFrame@@PAVVWindow@@ABVVStyle@@PBD@Z    @1978 NONAME
??0VGroupBox@@QAE@ABVVString@@ABVVFrame@@PAVVWindow@@ABVVStyle@@PBD@Z @1979 NONAME
??1VGroupBox@@UAE@XZ                                         @1980 NONAME
??RVGroupBox@@QAEXABVVFrame@@PAVVWindow@@@Z                  @1981 NONAME
??RVGroupBox@@QAEXABVVFrame@@PAVVWindow@@ABVVStyle@@@Z       @1982 NONAME
??RVGroupBox@@QAEXABVVFrame@@PAVVWindow@@ABVVStyle@@ABVVString@@@Z @1983 NONAME
?initialize@VGroupBox@@IAEXXZ                                @1984 NONAME
?construct@VGroupBox@@IAEXXZ                                 @1985 NONAME
?putText@VGroupBox@@UAEXABVVString@@@Z                       @1986 NONAME
?getInfo@VGroupBox@@MAEXAAVVWinInfo@@@Z                      @1987 NONAME
?getCtlColor@VGroupBox@@UAEIXZ                               @1988 NONAME
?has3dEffects@VGroupBox@@UBEHXZ                              @1989 NONAME
?has3dEffects@VGroupBox@@UBEHW4V_3D_EFFECTS@@@Z              @1990 NONAME
?erased@VGroupBox@@UAEHXZ                                    @1991 NONAME
?winType@VGroupBox@@UAE?AW4WinType@@XZ                       @1992 NONAME
?key@VGroupBox@@UAEHHD@Z                                     @1993 NONAME
?getNextChild@VGroupBox@@IBEPAVVWindow@@PAV2@@Z              @1994 NONAME
?getPrevChild@VGroupBox@@IBEPAVVWindow@@PAV2@@Z              @1995 NONAME
?getFirstChild@VGroupBox@@IBEPAVVWindow@@XZ                  @1996 NONAME
?getLastChild@VGroupBox@@IBEPAVVWindow@@XZ                   @1997 NONAME
?getPreferredSize@VGroupBox@@UBEXPAH0@Z                      @1998 NONAME
?getInternalBorderGeometry@VGroupBox@@UBEXPAH000@Z           @1999 NONAME
?VHelpVHelp@@YAPAXXZ                                         @2000 NONAME
?iam@VHelp@@UAEPAVVClass@@XZ                                 @2001 NONAME
??0VHelp@@QAE@XZ                                             @2002 NONAME
??0VHelp@@QAE@PAVVWindow@@ABVVString@@HH@Z                   @2003 NONAME
??1VHelp@@UAE@XZ                                             @2004 NONAME
?destroyed@VHelp@@MAEXXZ                                     @2005 NONAME
?contents@VHelp@@QAEHXZ                                      @2006 NONAME
?index@VHelp@@QAEHXZ                                         @2007 NONAME
?topic@VHelp@@QAEHJ@Z                                        @2008 NONAME
?topic@VHelp@@QAEHJH@Z                                       @2009 NONAME
?topicFromFocus@VHelp@@QAEHXZ                                @2010 NONAME
?topicFromMouse@VHelp@@QAEHXZ                                @2011 NONAME
?search@VHelp@@QAEHABVVString@@H@Z                           @2012 NONAME
?captureMouse@VHelp@@QAEHXZ                                  @2013 NONAME
?mouseUp@VHelp@@UAEHHH@Z                                     @2014 NONAME
?key@VHelp@@UAEHHD@Z                                         @2015 NONAME
?close@VHelp@@UAEHXZ                                         @2016 NONAME
?VIconVIcon@@YAPAXXZ                                         @2017 NONAME
?iam@VIcon@@UAEPAVVClass@@XZ                                 @2018 NONAME
??0VIcon@@QAE@XZ                                             @2019 NONAME
??1VIcon@@UAE@XZ                                             @2020 NONAME
??0VIcon@@QAE@PBD@Z                                          @2021 NONAME
?sizeOfIcon@VIcon@@QAEXPAH0@Z                                @2022 NONAME
?VIconButtonVIconButton@@YAPAXXZ                             @2023 NONAME
?iam@VIconButton@@UAEPAVVClass@@XZ                           @2024 NONAME
?paint@VIconButton@@UAEHXZ                                   @2025 NONAME
??0VIconButton@@QAE@IPAVVWindow@@@Z                          @2026 NONAME
??0VIconButton@@QAE@XZ                                       @2027 NONAME
??1VIconButton@@UAE@XZ                                       @2028 NONAME
??0VIconButton@@QAE@ABVVFrame@@PAVVIcon@@PAVVWindow@@ABVVStyle@@@Z @2029 NONAME
?setDefault@VIconButton@@UAEXH@Z                             @2030 NONAME
?getInfo@VIconButton@@MAEXAAVVWinInfo@@@Z                    @2031 NONAME
??0VIconButton@@QAE@ABVVFrame@@PAVVWindow@@ABVVStyle@@@Z     @2032 NONAME
??0VIconButton@@QAE@ABVVString@@ABVVFrame@@PAVVWindow@@ABVVStyle@@@Z @2033 NONAME
?setIcon@VIconButton@@QAEXPAD@Z                              @2034 NONAME
?setIcon@VIconButton@@QAEXPAVVIcon@@@Z                       @2035 NONAME
??0VIconButton@@QAE@ABVVFrame@@PADPAVVWindow@@ABVVStyle@@@Z  @2036 NONAME
?systemColorChanged@VIconButton@@UAEXXZ                      @2037 NONAME
?putTo@VIconButton@@UAEXAAVVArchiver@@@Z                     @2038 NONAME
?putTo@VIconButton@@IAEXAAVVArchiver@@H@Z                    @2039 NONAME
?getFrom@VIconButton@@UAEXAAVVArchiver@@@Z                   @2040 NONAME
?getFrom@VIconButton@@UAEXAAVVArchiver@@PAVVObject@@H@Z      @2041 NONAME
?realize@VIconButton@@UAEXPAVVWindow@@@Z                     @2042 NONAME
?VImageVImage@@YAPAXXZ                                       @2043 NONAME
?iam@VImage@@UAEPAVVClass@@XZ                                @2044 NONAME
??0VImage@@QAE@XZ                                            @2045 NONAME
??0VImage@@QAE@ABVVString@@HH@Z                              @2046 NONAME
??0VImage@@QAE@PBDHH@Z                                       @2047 NONAME
??0VImage@@QAE@ABVVPathString@@HH@Z                          @2048 NONAME
??0VImage@@QAE@ABVVString@@ABVVPathString@@HH@Z              @2049 NONAME
??0VImage@@QAE@ABVVString@@0HH@Z                             @2050 NONAME
??0VImage@@QAE@ABVVString@@PBDHH@Z                           @2051 NONAME
??0VImage@@QAE@PBDABVVPathString@@HH@Z                       @2052 NONAME
??0VImage@@QAE@PBDABVVString@@HH@Z                           @2053 NONAME
??0VImage@@QAE@PBD0HH@Z                                      @2054 NONAME
??0VImage@@QAE@ABVVBitMap@@HH@Z                              @2055 NONAME
??0VImage@@QAE@PBVVBitMap@@HH@Z                              @2056 NONAME
??0VImage@@QAE@ABV0@@Z                                       @2057 NONAME
??4VImage@@QAEAAV0@ABV0@@Z                                   @2058 NONAME
??1VImage@@UAE@XZ                                            @2059 NONAME
?initialize@VImage@@IAEXXZ                                   @2060 NONAME
?copy@VImage@@IAEXABV1@@Z                                    @2061 NONAME
?constructStatic@VImage@@KAXXZ                               @2062 NONAME
?destruct@VImage@@IAEXXZ                                     @2063 NONAME
?destructColors@VImage@@IAEXXZ                               @2064 NONAME
?destructBitmaps@VImage@@IAEXXZ                              @2065 NONAME
?destructStatic@VImage@@KAXXZ                                @2066 NONAME
?setImage@VImage@@QAEHABVVString@@HHH@Z                      @2067 NONAME
?setImage@VImage@@QAEHPBDHHH@Z                               @2068 NONAME
?setImage@VImage@@QAEHABVVPathString@@HHH@Z                  @2069 NONAME
?setImage@VImage@@QAEHABVVString@@ABVVPathString@@HHH@Z      @2070 NONAME
?setImage@VImage@@QAEHABVVString@@0HHH@Z                     @2071 NONAME
?setImage@VImage@@QAEHABVVString@@PBDHHH@Z                   @2072 NONAME
?setImage@VImage@@QAEHPBDABVVPathString@@HHH@Z               @2073 NONAME
?setImage@VImage@@QAEHPBDABVVString@@HHH@Z                   @2074 NONAME
?setImage@VImage@@QAEHPBD0HHH@Z                              @2075 NONAME
?setImage@VImage@@QAEHABVVBitMap@@HH@Z                       @2076 NONAME
?setImage@VImage@@QAEHPBVVBitMap@@HH@Z                       @2077 NONAME
?setItemCount@VImage@@QAEXHH@Z                               @2078 NONAME
?getItemGeometry@VImage@@QAEXAAH000HH@Z                      @2079 NONAME
?getItemGeometry@VImage@@QAEXPAH000HH@Z                      @2080 NONAME
?getDepth@VImage@@QBEHXZ                                     @2081 NONAME
?setTransparentColor@VImage@@QAEXABVVColor@@@Z               @2082 NONAME
?setAdditionalDisabledMaskColor@VImage@@QAEXABVVColor@@@Z    @2083 NONAME
?setAdditionalDisabledMaskColor@VImage@@QAEXXZ               @2084 NONAME
?readTransparentColorFromUpperLeft@VImage@@QAEXH@Z           @2085 NONAME
?mapColors@VImage@@QAEXH@Z                                   @2086 NONAME
?mapShadedColors@VImage@@QAEXH@Z                             @2087 NONAME
?mapShadedBackgroundColor@VImage@@QAEXH@Z                    @2088 NONAME
?mapShadedHighlightColor@VImage@@QAEXH@Z                     @2089 NONAME
?mapShadedShadowColor@VImage@@QAEXH@Z                        @2090 NONAME
?mapShadedForegroundColor@VImage@@QAEXH@Z                    @2091 NONAME
?mapFlatBackgroundColor@VImage@@QAEXH@Z                      @2092 NONAME
?mapFlatBackgroundSelectColor@VImage@@QAEXH@Z                @2093 NONAME
?getTransparentColor@VImage@@QBEABVVColor@@XZ                @2094 NONAME
?getShadedBackgroundColor@VImage@@QBEABVVColor@@XZ           @2095 NONAME
?getShadedHighlightColor@VImage@@QBEABVVColor@@XZ            @2096 NONAME
?getShadedShadowColor@VImage@@QBEABVVColor@@XZ               @2097 NONAME
?getShadedForegroundColor@VImage@@QBEABVVColor@@XZ           @2098 NONAME
?getFlatBackgroundColor@VImage@@QBEABVVColor@@XZ             @2099 NONAME
?getFlatBackgroundSelectColor@VImage@@QBEABVVColor@@XZ       @2100 NONAME
?getUpperLeftPixelColor@VImage@@QBEABVVColor@@XZ             @2101 NONAME
?isValid@VImage@@QBEHXZ                                      @2102 NONAME
?draw@VImage@@QAEXPAVVPort@@HHHHH@Z                          @2103 NONAME
?draw@VImage@@QAEXPAVVDisplay@@HHHHH@Z                       @2104 NONAME
?drawMappedTransparent@VImage@@IAEXPAVVDisplay@@HHHH@Z       @2105 NONAME
?drawMappedOpaque@VImage@@IAEXPAVVDisplay@@HHHH@Z            @2106 NONAME
?drawUnmappedTransparent@VImage@@IAEXPAVVDisplay@@HHHH@Z     @2107 NONAME
?drawUnmappedOpaque@VImage@@IAEXPAVVDisplay@@HHHH@Z          @2108 NONAME
?drawDisabled@VImage@@IAEXPAVVDisplay@@HHHH@Z                @2109 NONAME
?drawMask@VImage@@IAEXPAVVDisplay@@HHHH@Z                    @2110 NONAME
?drawDisabledMask@VImage@@IAEXPAVVDisplay@@HHHH@Z            @2111 NONAME
?systemColorChanged@VImage@@QAEXXZ                           @2112 NONAME
?retrieveOriginalBitmap@VImage@@IBEHPAVVObject@@@Z           @2113 NONAME
?constructAndMaskBitmap@VImage@@IAEHXZ                       @2114 NONAME
?constructDisabledAndMaskBitmap@VImage@@IAEHXZ               @2115 NONAME
?constructMappedBitmap@VImage@@IAEHXZ                        @2116 NONAME
?constructMappedOrBitmap@VImage@@IAEHXZ                      @2117 NONAME
?constructUnmappedOrBitmap@VImage@@IAEHXZ                    @2118 NONAME
?performColorMapping@VImage@@IAEXPAVVBitMap@@H@Z             @2119 NONAME
?mapColor@VImage@@QAEXABVVColor@@0@Z                         @2120 NONAME
?copyOriginalBitmap@VImage@@IBEPAVVBitMap@@XZ                @2121 NONAME
?copyBitmap@VImage@@KAPAVVBitMap@@PBV2@@Z                    @2122 NONAME
?putTo@VImage@@UAEXAAVVArchiver@@@Z                          @2123 NONAME
?getFrom@VImage@@UAEXAAVVArchiver@@@Z                        @2124 NONAME
?getFrom@VImage@@UAEXAAVVArchiver@@PAVVObject@@H@Z           @2125 NONAME
?loadResources@VImage@@QAEHAAVVRscArchiver@@@Z               @2126 NONAME
?VAnimatedImageBoxVAnimatedImageBox@@YAPAXXZ                 @2127 NONAME
?iam@VAnimatedImageBox@@UAEPAVVClass@@XZ                     @2128 NONAME
??0VAnimatedImageBox@@QAE@XZ                                 @2129 NONAME
??0VAnimatedImageBox@@QAE@PAVVWindow@@ABVVStyle@@@Z          @2130 NONAME
??0VAnimatedImageBox@@QAE@ABVVFrame@@PAVVWindow@@ABVVStyle@@@Z @2131 NONAME
??0VAnimatedImageBox@@QAE@PAVVWindow@@PAVVImage@@HABVVStyle@@@Z @2132 NONAME
??0VAnimatedImageBox@@QAE@ABVVString@@PAVVWindow@@ABVVStyle@@@Z @2133 NONAME
??0VAnimatedImageBox@@QAE@ABVVString@@ABVVFrame@@PAVVWindow@@ABVVStyle@@@Z @2134 NONAME
??0VAnimatedImageBox@@QAE@ABVVString@@PAVVWindow@@PAVVImage@@HABVVStyle@@@Z @2135 NONAME
??RVAnimatedImageBox@@QAEXPAVVWindow@@@Z                     @2136 NONAME
??RVAnimatedImageBox@@QAEXPAVVWindow@@ABVVStyle@@@Z          @2137 NONAME
??RVAnimatedImageBox@@QAEXPAVVWindow@@ABVVStyle@@ABVVString@@@Z @2138 NONAME
??RVAnimatedImageBox@@QAEXABVVFrame@@PAVVWindow@@@Z          @2139 NONAME
??RVAnimatedImageBox@@QAEXABVVFrame@@PAVVWindow@@ABVVStyle@@@Z @2140 NONAME
??RVAnimatedImageBox@@QAEXABVVFrame@@PAVVWindow@@ABVVStyle@@ABVVString@@@Z @2141 NONAME
??1VAnimatedImageBox@@UAE@XZ                                 @2142 NONAME
?initialize@VAnimatedImageBox@@IAEXXZ                        @2143 NONAME
?construct@VAnimatedImageBox@@IAEXXZ                         @2144 NONAME
?uponImageChanged@VAnimatedImageBox@@QAEXPAVVObject@@P82@AEHXZ@Z @2145 NONAME
?setSpeed@VAnimatedImageBox@@QAEXW4Speed@1@@Z                @2146 NONAME
?setFramesPerSecond@VAnimatedImageBox@@QAEXH@Z               @2147 NONAME
?setMilliSeconds@VAnimatedImageBox@@QAEXH@Z                  @2148 NONAME
?setRowMajor@VAnimatedImageBox@@QAEXH@Z                      @2149 NONAME
?play@VAnimatedImageBox@@QAEXH@Z                             @2150 NONAME
?showNext@VAnimatedImageBox@@QAEXXZ                          @2151 NONAME
?showPrevious@VAnimatedImageBox@@QAEXXZ                      @2152 NONAME
?showFirst@VAnimatedImageBox@@QAEXXZ                         @2153 NONAME
?showLast@VAnimatedImageBox@@QAEXXZ                          @2154 NONAME
?updateImage@VAnimatedImageBox@@MAEXXZ                       @2155 NONAME
?getTimer@VAnimatedImageBox@@IBEPAVVTimer@@XZ                @2156 NONAME
?putTo@VAnimatedImageBox@@UAEXAAVVArchiver@@@Z               @2157 NONAME
?putTo@VAnimatedImageBox@@QAEXAAVVArchiver@@H@Z              @2158 NONAME
?getFrom@VAnimatedImageBox@@UAEXAAVVArchiver@@@Z             @2159 NONAME
?getFrom@VAnimatedImageBox@@UAEXAAVVArchiver@@PAVVObject@@H@Z @2160 NONAME
?realize@VAnimatedImageBox@@UAEXPAVVWindow@@@Z               @2161 NONAME
?VImageBoxVImageBox@@YAPAXXZ                                 @2162 NONAME
?iam@VImageBox@@UAEPAVVClass@@XZ                             @2163 NONAME
??0VImageBox@@QAE@XZ                                         @2164 NONAME
??0VImageBox@@QAE@PAVVWindow@@ABVVStyle@@@Z                  @2165 NONAME
??0VImageBox@@QAE@ABVVFrame@@PAVVWindow@@ABVVStyle@@@Z       @2166 NONAME
??0VImageBox@@QAE@PAVVWindow@@PAVVImage@@HABVVStyle@@@Z      @2167 NONAME
??0VImageBox@@QAE@ABVVString@@PAVVWindow@@ABVVStyle@@@Z      @2168 NONAME
??0VImageBox@@QAE@ABVVString@@ABVVFrame@@PAVVWindow@@ABVVStyle@@@Z @2169 NONAME
??0VImageBox@@QAE@ABVVString@@PAVVWindow@@PAVVImage@@HABVVStyle@@@Z @2170 NONAME
??RVImageBox@@QAEXPAVVWindow@@@Z                             @2171 NONAME
??RVImageBox@@QAEXPAVVWindow@@ABVVStyle@@@Z                  @2172 NONAME
??RVImageBox@@QAEXPAVVWindow@@ABVVStyle@@ABVVString@@@Z      @2173 NONAME
??RVImageBox@@QAEXABVVFrame@@PAVVWindow@@@Z                  @2174 NONAME
??RVImageBox@@QAEXABVVFrame@@PAVVWindow@@ABVVStyle@@@Z       @2175 NONAME
??RVImageBox@@QAEXABVVFrame@@PAVVWindow@@ABVVStyle@@ABVVString@@@Z @2176 NONAME
??1VImageBox@@UAE@XZ                                         @2177 NONAME
?initialize@VImageBox@@IAEXXZ                                @2178 NONAME
?construct@VImageBox@@IAEXXZ                                 @2179 NONAME
?destruct@VImageBox@@IAEXXZ                                  @2180 NONAME
?constructStatic@VImageBox@@KAXXZ                            @2181 NONAME
?destructStatic@VImageBox@@KAXXZ                             @2182 NONAME
?setImage@VImageBox@@QAEHPAVVImage@@H@Z                      @2183 NONAME
?setImage@VImageBox@@QAEHABVVString@@HHH@Z                   @2184 NONAME
?setImage@VImageBox@@QAEHPBDHHH@Z                            @2185 NONAME
?setImage@VImageBox@@QAEHABVVPathString@@HHH@Z               @2186 NONAME
?setImage@VImageBox@@QAEHABVVString@@ABVVPathString@@HHH@Z   @2187 NONAME
?setImage@VImageBox@@QAEHABVVString@@0HHH@Z                  @2188 NONAME
?setImage@VImageBox@@QAEHABVVString@@PBDHHH@Z                @2189 NONAME
?setImage@VImageBox@@QAEHPBDABVVPathString@@HHH@Z            @2190 NONAME
?setImage@VImageBox@@QAEHPBDABVVString@@HHH@Z                @2191 NONAME
?setImage@VImageBox@@QAEHPBD0HHH@Z                           @2192 NONAME
?setImage@VImageBox@@QAEHPBVVBitMap@@HHH@Z                   @2193 NONAME
?setImage@VImageBox@@QAEHABVVBitMap@@HHH@Z                   @2194 NONAME
?setImage@VImageBox@@QAEHH@Z                                 @2195 NONAME
?setImageIndex@VImageBox@@QAEXHH@Z                           @2196 NONAME
?getImageMajorCount@VImageBox@@QBEHXZ                        @2197 NONAME
?getImageMinorCount@VImageBox@@QBEHXZ                        @2198 NONAME
?setText@VImageBox@@QAEXABVVString@@@Z                       @2199 NONAME
?displayImage@VImageBox@@QAEXH@Z                             @2200 NONAME
?displayText@VImageBox@@QAEXH@Z                              @2201 NONAME
?showBorder@VImageBox@@QAEXH@Z                               @2202 NONAME
?setBorderStyle@VImageBox@@QAEXH@Z                           @2203 NONAME
?setMargins@VImageBox@@QAEXH@Z                               @2204 NONAME
?setMargins@VImageBox@@QAEXHH@Z                              @2205 NONAME
?setMargins@VImageBox@@QAEXHHHH@Z                            @2206 NONAME
?setTextPlacement@VImageBox@@QAEXW4Placement@1@@Z            @2207 NONAME
?setTextImageGap@VImageBox@@QAEXH@Z                          @2208 NONAME
?setTextImageDisplacement@VImageBox@@QAEXH@Z                 @2209 NONAME
?setTextImageDisplacement@VImageBox@@QAEXHH@Z                @2210 NONAME
?setImageDrawMode@VImageBox@@QAEXH@Z                         @2211 NONAME
?useTheImageDrawMode@VImageBox@@QAEXH@Z                      @2212 NONAME
?disable@VImageBox@@UAEXH@Z                                  @2213 NONAME
?enableBool@VImageBox@@MAEXH@Z                               @2214 NONAME
?resized@VImageBox@@MAEHHH@Z                                 @2215 NONAME
?erased@VImageBox@@MAEHXZ                                    @2216 NONAME
?paint@VImageBox@@MAEHXZ                                     @2217 NONAME
?paintBorder@VImageBox@@MAEXAAVVPort@@@Z                     @2218 NONAME
?paintBackground@VImageBox@@MAEXAAVVPort@@@Z                 @2219 NONAME
?paintContents@VImageBox@@MAEXAAVVPort@@@Z                   @2220 NONAME
?paintSunkenBorder@VImageBox@@IAEXAAVVPort@@@Z               @2221 NONAME
?paintSunkenThickBorder@VImageBox@@IAEXAAVVPort@@@Z          @2222 NONAME
?paintRaisedBorder@VImageBox@@IAEXAAVVPort@@@Z               @2223 NONAME
?paintRaisedThickBorder@VImageBox@@IAEXAAVVPort@@@Z          @2224 NONAME
?paintEtchedInBorder@VImageBox@@IAEXAAVVPort@@@Z             @2225 NONAME
?paintEtchedOutBorder@VImageBox@@IAEXAAVVPort@@@Z            @2226 NONAME
?paintFlatBorder@VImageBox@@IAEXAAVVPort@@@Z                 @2227 NONAME
?paintFlatThickBorder@VImageBox@@IAEXAAVVPort@@@Z            @2228 NONAME
?paintFlatDoubleBorder@VImageBox@@IAEXAAVVPort@@@Z           @2229 NONAME
?paintNullBorder@VImageBox@@IAEXAAVVPort@@@Z                 @2230 NONAME
?repaint@VImageBox@@QAEXXZ                                   @2231 NONAME
?repaintBackgroundAndContents@VImageBox@@QAEXXZ              @2232 NONAME
?repaintContents@VImageBox@@QAEXXZ                           @2233 NONAME
?repaintBorder@VImageBox@@QAEXXZ                             @2234 NONAME
?systemColorChanged@VImageBox@@MAEXXZ                        @2235 NONAME
?setFont@VImageBox@@MAEXPAVVFont@@@Z                         @2236 NONAME
?calculateTextSize@VImageBox@@IAEXXZ                         @2237 NONAME
?getPreferredSize@VImageBox@@MBEXPAH0@Z                      @2238 NONAME
?getInternalBorderGeometry@VImageBox@@MBEXPAH000@Z           @2239 NONAME
?getPalette@VImageBox@@MAEPAUHPALETTE__@@XZ                  @2240 NONAME
?putTo@VImageBox@@UAEXAAVVArchiver@@@Z                       @2241 NONAME
?putTo@VImageBox@@QAEXAAVVArchiver@@H@Z                      @2242 NONAME
?getFrom@VImageBox@@UAEXAAVVArchiver@@@Z                     @2243 NONAME
?getFrom@VImageBox@@UAEXAAVVArchiver@@PAVVObject@@H@Z        @2244 NONAME
?realize@VImageBox@@UAEXPAVVWindow@@@Z                       @2245 NONAME
?loadResources@VImageBox@@UAEHAAVVRscArchiver@@@Z            @2246 NONAME
?VImageButtonVImageButton@@YAPAXXZ                           @2247 NONAME
?iam@VImageButton@@UAEPAVVClass@@XZ                          @2248 NONAME
??0VImageButton@@QAE@XZ                                      @2249 NONAME
??0VImageButton@@QAE@PAVVWindow@@ABVVStyle@@@Z               @2250 NONAME
??0VImageButton@@QAE@ABVVFrame@@PAVVWindow@@ABVVStyle@@@Z    @2251 NONAME
??0VImageButton@@QAE@PAVVWindow@@PAVVImage@@HABVVStyle@@@Z   @2252 NONAME
??0VImageButton@@QAE@ABVVString@@PAVVWindow@@ABVVStyle@@@Z   @2253 NONAME
??0VImageButton@@QAE@ABVVString@@ABVVFrame@@PAVVWindow@@ABVVStyle@@@Z @2254 NONAME
??0VImageButton@@QAE@ABVVString@@PAVVWindow@@PAVVImage@@HABVVStyle@@@Z @2255 NONAME
??RVImageButton@@QAEXPAVVWindow@@@Z                          @2256 NONAME
??RVImageButton@@QAEXPAVVWindow@@ABVVStyle@@@Z               @2257 NONAME
??RVImageButton@@QAEXPAVVWindow@@ABVVStyle@@ABVVString@@@Z   @2258 NONAME
??RVImageButton@@QAEXABVVFrame@@PAVVWindow@@@Z               @2259 NONAME
??RVImageButton@@QAEXABVVFrame@@PAVVWindow@@ABVVStyle@@@Z    @2260 NONAME
??RVImageButton@@QAEXABVVFrame@@PAVVWindow@@ABVVStyle@@ABVVString@@@Z @2261 NONAME
??1VImageButton@@UAE@XZ                                      @2262 NONAME
?initialize@VImageButton@@IAEXXZ                             @2263 NONAME
?construct@VImageButton@@IAEXXZ                              @2264 NONAME
?constructStatic@VImageButton@@KAXXZ                         @2265 NONAME
?destructStatic@VImageButton@@KAXXZ                          @2266 NONAME
?getLightStippleBrush@VImageButton@@KAPAVVBrush@@XZ          @2267 NONAME
?getDarkStippleBrush@VImageButton@@KAPAVVBrush@@XZ           @2268 NONAME
?setPushButton@VImageButton@@QAEXXZ                          @2269 NONAME
?setCheckBoxButton@VImageButton@@QAEXXZ                      @2270 NONAME
?setRadioButton@VImageButton@@QAEXXZ                         @2271 NONAME
?setStickyRadioButton@VImageButton@@QAEXXZ                   @2272 NONAME
?setBorderStyle@VImageButton@@QAEXH@Z                        @2273 NONAME
?disable@VImageButton@@UAEXH@Z                               @2274 NONAME
?setIndeterminate@VImageButton@@QAEXH@Z                      @2275 NONAME
?useHoverMode@VImageButton@@QAEXH@Z                          @2276 NONAME
?useStateImages@VImageButton@@QAEXH@Z                        @2277 NONAME
?uponClick@VImageButton@@QAEXPAVVObject@@P82@AEHXZ@Z         @2278 NONAME
?toggleIn@VImageButton@@QAEXHH@Z                             @2279 NONAME
?stickIn@VImageButton@@QAEXHH@Z                              @2280 NONAME
?click@VImageButton@@QAEXH@Z                                 @2281 NONAME
?arm@VImageButton@@IAEXH@Z                                   @2282 NONAME
?disarm@VImageButton@@IAEXH@Z                                @2283 NONAME
?activate@VImageButton@@IAEXH@Z                              @2284 NONAME
?clicked@VImageButton@@MAEHXZ                                @2285 NONAME
?mouseDn@VImageButton@@MAEHHH@Z                              @2286 NONAME
?mouseUp@VImageButton@@MAEHHH@Z                              @2287 NONAME
?mouseDbl@VImageButton@@MAEHHH@Z                             @2288 NONAME
?mouseMv@VImageButton@@MAEHHHH@Z                             @2289 NONAME
?mouseEnter@VImageButton@@MAEHH@Z                            @2290 NONAME
?mouseExit@VImageButton@@MAEHH@Z                             @2291 NONAME
?paint@VImageButton@@MAEHXZ                                  @2292 NONAME
?paintBackground@VImageButton@@MAEXAAVVPort@@@Z              @2293 NONAME
?givenFocus@VImageButton@@MAEHXZ                             @2294 NONAME
?clearFocus@VImageButton@@MAEHXZ                             @2295 NONAME
?setBitMapButtonCompatibilityMode@VImageButton@@QAEXHPAVVBitMap@@HHH@Z @2296 NONAME
?setBitMapButtonBitmap@VImageButton@@QAEXPAVVBitMap@@HHH@Z   @2297 NONAME
?setBitMapButtonBitmap@VImageButton@@QAEXABVVString@@HHH@Z   @2298 NONAME
?setBitMapButtonFrameCount@VImageButton@@QAEXH@Z             @2299 NONAME
?setBitMapButtonSequenceLength@VImageButton@@QAEXH@Z         @2300 NONAME
?setBitMapButtonStartSequence@VImageButton@@QAEXH@Z          @2301 NONAME
?systemColorChanged@VImageButton@@MAEXXZ                     @2302 NONAME
?putTo@VImageButton@@UAEXAAVVArchiver@@@Z                    @2303 NONAME
?putTo@VImageButton@@QAEXAAVVArchiver@@H@Z                   @2304 NONAME
?getFrom@VImageButton@@UAEXAAVVArchiver@@@Z                  @2305 NONAME
?getFrom@VImageButton@@UAEXAAVVArchiver@@PAVVObject@@H@Z     @2306 NONAME
?realize@VImageButton@@UAEXPAVVWindow@@@Z                    @2307 NONAME
?initialize@VIntelliMouse@@SAXXZ                             @2308 NONAME
?systemSettingsChanged@VIntelliMouse@@SAXXZ                  @2309 NONAME
?isPresent@VIntelliMouse@@SAHXZ                              @2310 NONAME
?getScrollLinesPerWheelRotation@VIntelliMouse@@SAHXZ         @2311 NONAME
?handleWheelMessage@VIntelliMouse@@SAHIJ@Z                   @2312 NONAME
?VImplicitStyleVImplicitStyle@@YAPAXXZ                       @2313 NONAME
?iam@VImplicitStyle@@UAEPAVVClass@@XZ                        @2314 NONAME
?setExclusive@VImplicitStyle@@SAXPAPAV1@@Z                   @2315 NONAME
?setImplicit@VImplicitStyle@@QAEXPAPBV1@@Z                   @2316 NONAME
?addImplicit@VImplicitStyle@@QAEXPAPBV1@@Z                   @2317 NONAME
?removeImplicit@VImplicitStyle@@QAEXPAPBV1@@Z                @2318 NONAME
?setImplicit@VImplicitStyle@@QAEXABV1@@Z                     @2319 NONAME
?addImplicit@VImplicitStyle@@QAEXABV1@@Z                     @2320 NONAME
?removeImplicit@VImplicitStyle@@QAEXABV1@@Z                  @2321 NONAME
?set@VImplicitStyle@@QAEXABVVStyleExpression@@@Z             @2322 NONAME
?add@VImplicitStyle@@QAEXABVVStyleExpression@@@Z             @2323 NONAME
?remove@VImplicitStyle@@QAEXABVVStyleExpression@@@Z          @2324 NONAME
?set@VImplicitStyle@@QAEXABV1@@Z                             @2325 NONAME
?add@VImplicitStyle@@QAEXABV1@@Z                             @2326 NONAME
?remove@VImplicitStyle@@QAEXABV1@@Z                          @2327 NONAME
?set@VImplicitStyle@@UAEXABVVStyle@@@Z                       @2328 NONAME
?add@VImplicitStyle@@UAEXABVVStyle@@@Z                       @2329 NONAME
?remove@VImplicitStyle@@UAEXABVVStyle@@@Z                    @2330 NONAME
??1VImplicitStyle@@UAE@XZ                                    @2331 NONAME
?convertOldToNew@VImplicitStyle@@SAXFAAVVWindow@@@Z          @2332 NONAME
?getFrom@VImplicitStyle@@UAEXAAVVArchiver@@@Z                @2333 NONAME
?putTo@VImplicitStyle@@UAEXAAVVArchiver@@@Z                  @2334 NONAME
?VInclusiveGroupVInclusiveGroup@@YAPAXXZ                     @2335 NONAME
?iam@VInclusiveGroup@@UAEPAVVClass@@XZ                       @2336 NONAME
??0VInclusiveGroup@@QAE@XZ                                   @2337 NONAME
??0VInclusiveGroup@@QAE@ABVVFrame@@PAVVWindow@@PADPAVVClass@@@Z @2338 NONAME
??0VInclusiveGroup@@QAE@ABVVString@@ABVVFrame@@PAVVWindow@@PADPAVVClass@@@Z @2339 NONAME
??0VInclusiveGroup@@QAE@IPAVVWindow@@@Z                      @2340 NONAME
??0VInclusiveGroup@@QAE@IIIPAVVWindow@@@Z                    @2341 NONAME
??1VInclusiveGroup@@UAE@XZ                                   @2342 NONAME
?addControl@VInclusiveGroup@@UAEXPAVVControl@@@Z             @2343 NONAME
?addButtons@VInclusiveGroup@@QAEXPAPADMMMMMM@Z               @2344 NONAME
?addButtons@VInclusiveGroup@@QAEXAAVVOrdCollect@@MMMMMM@Z    @2345 NONAME
?addButtons@VInclusiveGroup@@QAEXPAPADHHHHHH@Z               @2346 NONAME
?addButtons@VInclusiveGroup@@QAEXAAVVOrdCollect@@HHHHHH@Z    @2347 NONAME
?addButtons@VInclusiveGroup@@QAEXPAPADHHHH@Z                 @2348 NONAME
?addButtons@VInclusiveGroup@@QAEXAAVVOrdCollect@@HHHH@Z      @2349 NONAME
?clicked@VInclusiveGroup@@UAEHPAVVButton@@@Z                 @2350 NONAME
?notify@VInclusiveGroup@@MAEHH@Z                             @2351 NONAME
?uponClick@VInclusiveGroup@@QAEXPAVVObject@@P82@AEHXZ@Z      @2352 NONAME
?putTo@VInclusiveGroup@@UAEXAAVVArchiver@@@Z                 @2353 NONAME
?putTo@VInclusiveGroup@@IAEXAAVVArchiver@@H@Z                @2354 NONAME
?getFrom@VInclusiveGroup@@UAEXAAVVArchiver@@@Z               @2355 NONAME
?getFrom@VInclusiveGroup@@UAEXAAVVArchiver@@PAVVObject@@H@Z  @2356 NONAME
?realize@VInclusiveGroup@@UAEXPAVVWindow@@@Z                 @2357 NONAME
?VInputVInput@@YAPAXXZ                                       @2358 NONAME
?iam@VInput@@UAEPAVVClass@@XZ                                @2359 NONAME
??0VInput@@QAE@XZ                                            @2360 NONAME
??0VInput@@QAE@PBD0PAPAVVString@@PAVVWindow@@@Z              @2361 NONAME
??RVInput@@QAEXPBD0PAPAVVString@@PAVVWindow@@@Z              @2362 NONAME
??1VInput@@UAE@XZ                                            @2363 NONAME
?dialog@VInput@@SAPAVVString@@PBDPAV2@PAVVWindow@@@Z         @2364 NONAME
?dialog@VInput@@SAPAVVString@@PAV2@PBDPAVVWindow@@1ZZ        @2365 NONAME
?givenFocus@VInput@@MAEHXZ                                   @2366 NONAME
?VIntAssocVIntAssoc@@YAPAXXZ                                 @2367 NONAME
?iam@VIntAssoc@@UAEPAVVClass@@XZ                             @2368 NONAME
??0VIntAssoc@@QAE@XZ                                         @2369 NONAME
?getFrom@VIntAssoc@@UAEXAAVVArchiver@@@Z                     @2370 NONAME
?getFrom@VIntAssoc@@UAEXAAVVArchiver@@PAVVObject@@H@Z        @2371 NONAME
?hash@VIntAssoc@@UBEJXZ                                      @2372 NONAME
?isEqual@VIntAssoc@@UBEHPAVVObject@@@Z                       @2373 NONAME
?putTo@VIntAssoc@@UAEXAAVVArchiver@@@Z                       @2374 NONAME
??0VIntAssoc@@QAE@JJ@Z                                       @2375 NONAME
??0VIntAssoc@@QAE@ABV0@@Z                                    @2376 NONAME
?VInternationalComboTableVInternationalComboTable@@YAPAXXZ   @2377 NONAME
?iam@VInternationalComboTable@@UAEPAVVClass@@XZ              @2378 NONAME
??0VInternationalComboTable@@QAE@XZ                          @2379 NONAME
??1VInternationalComboTable@@UAE@XZ                          @2380 NONAME
?get@VInternationalComboTable@@IBEHPAVVObject@@00@Z          @2381 NONAME
?put@VInternationalComboTable@@IAEHPAVVObject@@00@Z          @2382 NONAME
?addingTag@VInternationalComboTable@@MAEHPAVVObject@@@Z      @2383 NONAME
?removingTag@VInternationalComboTable@@MAEXPAVVObject@@@Z    @2384 NONAME
?putTo@VInternationalComboTable@@UAEXAAVVArchiver@@@Z        @2385 NONAME
?getFrom@VInternationalComboTable@@UAEXAAVVArchiver@@@Z      @2386 NONAME
?getFrom@VInternationalComboTable@@UAEXAAVVArchiver@@PAVVObject@@H@Z @2387 NONAME
?putTo@VInternationalComboTable@@QBEHAAVVRscArchiver@@ABVVString@@@Z @2388 NONAME
?getFrom@VInternationalComboTable@@SAPAV1@AAVVRscArchiver@@ABVVString@@PAVVClass@@@Z @2389 NONAME
?VInternationalTableVInternationalTable@@YAPAXXZ             @2390 NONAME
?iam@VInternationalTable@@UAEPAVVClass@@XZ                   @2391 NONAME
??0VInternationalTable@@QAE@XZ                               @2392 NONAME
??1VInternationalTable@@UAE@XZ                               @2393 NONAME
?get@VInternationalTable@@IBEHPAVVObject@@0@Z                @2394 NONAME
?createLocaleDictionary@VInternationalTable@@IAEPAVVDictionary@@ABVVLocale@@@Z @2395 NONAME
?put@VInternationalTable@@IAEHPAVVObject@@0@Z                @2396 NONAME
?remove@VInternationalTable@@IAEHPAVVObject@@@Z              @2397 NONAME
?localeDictionary@VInternationalTable@@IBEPAVVDictionary@@XZ @2398 NONAME
?setLocale@VInternationalTable@@QAEHABVVLocale@@@Z           @2399 NONAME
?setBackupLocale@VInternationalTable@@QAEHABVVLocale@@@Z     @2400 NONAME
?supports@VInternationalTable@@MBEHABVVLocale@@@Z            @2401 NONAME
?getLocale@VInternationalTable@@QBE?AVVLocale@@XZ            @2402 NONAME
?import@VInternationalTable@@QAEHABVVPathString@@@Z          @2403 NONAME
?export@VInternationalTable@@QBEHABVVPathString@@@Z          @2404 NONAME
?setOfLocales@VInternationalTable@@QBEPAVVSet@@XZ            @2405 NONAME
?setOfTags@VInternationalTable@@QBEPAVVSet@@XZ               @2406 NONAME
?addingTag@VInternationalTable@@MAEHPAVVObject@@@Z           @2407 NONAME
?removingTag@VInternationalTable@@MAEXPAVVObject@@@Z         @2408 NONAME
?putTo@VInternationalTable@@UAEXAAVVArchiver@@@Z             @2409 NONAME
?getFrom@VInternationalTable@@UAEXAAVVArchiver@@@Z           @2410 NONAME
?getFrom@VInternationalTable@@UAEXAAVVArchiver@@PAVVObject@@H@Z @2411 NONAME
?putTo@VInternationalTable@@QBEHAAVVRscArchiver@@ABVVString@@@Z @2412 NONAME
?getFrom@VInternationalTable@@SAPAV1@AAVVRscArchiver@@ABVVString@@HPAVVClass@@@Z @2413 NONAME
?VIntegerSetVIntegerSet@@YAPAXXZ                             @2414 NONAME
?iam@VIntegerSet@@UAEPAVVClass@@XZ                           @2415 NONAME
??0VIntegerSet@@QAE@XZ                                       @2416 NONAME
??0VIntegerSet@@QAE@J@Z                                      @2417 NONAME
?count@VIntegerSet@@QAEJXZ                                   @2418 NONAME
?add@VIntegerSet@@QAEHJ@Z                                    @2419 NONAME
?find@VIntegerSet@@QAEHJ@Z                                   @2420 NONAME
?indexOf@VIntegerSet@@QAEJJ@Z                                @2421 NONAME
?remove@VIntegerSet@@QAEJJ@Z                                 @2422 NONAME
?expandTo@VIntegerSet@@UAEXJ@Z                               @2423 NONAME
?reset@VIntegerSet@@UAEXXZ                                   @2424 NONAME
?copyFrom@VIntegerSet@@UAEHPAVVObject@@@Z                    @2425 NONAME
??0VIntegerSet@@QAE@ABV0@@Z                                  @2426 NONAME
??4VIntegerSet@@QAEAAV0@ABV0@@Z                              @2427 NONAME
?getFrom@VIntegerSet@@UAEXAAVVArchiver@@@Z                   @2428 NONAME
?getFrom@VIntegerSet@@UAEXAAVVArchiver@@PAVVObject@@H@Z      @2429 NONAME
?putTo@VIntegerSet@@UAEXAAVVArchiver@@@Z                     @2430 NONAME
?VIteratorVIterator@@YAPAXXZ                                 @2431 NONAME
?iam@VIterator@@UAEPAVVClass@@XZ                             @2432 NONAME
??0VIterator@@QAE@XZ                                         @2433 NONAME
??0VIterator@@QAE@ABVVCollection@@@Z                         @2434 NONAME
??0VIterator@@QAE@PBVVCollection@@@Z                         @2435 NONAME
??0VIterator@@QAE@ABV0@@Z                                    @2436 NONAME
??4VIterator@@QAEAAV0@ABV0@@Z                                @2437 NONAME
??1VIterator@@UAE@XZ                                         @2438 NONAME
?copyFrom@VIterator@@UAEHPAVVObject@@@Z                      @2439 NONAME
?getFrom@VIterator@@UAEXAAVVArchiver@@@Z                     @2440 NONAME
?getFrom@VIterator@@UAEXAAVVArchiver@@PAVVObject@@H@Z        @2441 NONAME
?putTo@VIterator@@UAEXAAVVArchiver@@@Z                       @2442 NONAME
?VListBoxVListBox@@YAPAXXZ                                   @2443 NONAME
?iam@VListBox@@UAEPAVVClass@@XZ                              @2444 NONAME
??1VListBox@@UAE@XZ                                          @2445 NONAME
?init@VListBox@@IAEXPBD@Z                                    @2446 NONAME
??0VListBox@@QAE@IPAVVWindow@@@Z                             @2447 NONAME
?sizeOf@VListBox@@UAEXPAH0@Z                                 @2448 NONAME
??0VListBox@@QAE@ABVVFrame@@PAVVWindow@@ABVVStyle@@@Z        @2449 NONAME
??0VListBox@@QAE@ABVVString@@ABVVFrame@@PAVVWindow@@ABVVStyle@@@Z @2450 NONAME
?getInfo@VListBox@@MAEXAAVVWinInfo@@@Z                       @2451 NONAME
?getCtlColor@VListBox@@MAEIXZ                                @2452 NONAME
?getMinSize@VListBox@@MAEXAAF0@Z                             @2453 NONAME
?appendList@VListBox@@QAEXPAPBD@Z                            @2454 NONAME
?insertList@VListBox@@QAEXPAPBD@Z                            @2455 NONAME
?insertList@VListBox@@QAEXPAPBDH@Z                           @2456 NONAME
?appendString@VListBox@@QAEHPBD@Z                            @2457 NONAME
?calculateExtent@VListBox@@AAEHPBD@Z                         @2458 NONAME
?insertString@VListBox@@UAEXPBD@Z                            @2459 NONAME
?insertString@VListBox@@UAEXPBDH@Z                           @2460 NONAME
?clearList@VListBox@@UAEXXZ                                  @2461 NONAME
?count@VListBox@@UBEHXZ                                      @2462 NONAME
?deleteStringAt@VListBox@@UAEXH@Z                            @2463 NONAME
?replaceStringAt@VListBox@@UAEXHPBD@Z                        @2464 NONAME
?findString@VListBox@@QAEHPBDH@Z                             @2465 NONAME
?findPrefix@VListBox@@UAEHPBDH@Z                             @2466 NONAME
?selectPrefix@VListBox@@UAEHPBDH@Z                           @2467 NONAME
?dir@VListBox@@UAEHPAVVString@@I@Z                           @2468 NONAME
?notify@VListBox@@MAEHH@Z                                    @2469 NONAME
?refresh@VListBox@@QAEXH@Z                                   @2470 NONAME
?resized@VListBox@@UAEHHH@Z                                  @2471 NONAME
?selectedItem@VListBox@@UBEHXZ                               @2472 NONAME
?selectedString@VListBox@@UBEPAVVString@@XZ                  @2473 NONAME
?selectItem@VListBox@@UAEXJ@Z                                @2474 NONAME
??0VListBox@@QAE@XZ                                          @2475 NONAME
?uponClick@VListBox@@QAEXPAVVObject@@P82@AEHXZ1H@Z           @2476 NONAME
?uponClick@VListBox@@QAEXPAVVObject@@P82@AEHXZH@Z            @2477 NONAME
?uponDblClick@VListBox@@QAEXPAVVObject@@P82@AEHXZH@Z         @2478 NONAME
?winType@VListBox@@UAE?AW4WinType@@XZ                        @2479 NONAME
?getPreferredSize@VListBox@@UBEXPAH0@Z                       @2480 NONAME
?getStringAt@VListBox@@UAEPAVVString@@H@Z                    @2481 NONAME
?setHorizontalExtent@VListBox@@AAEXH@Z                       @2482 NONAME
?getHorizontalExtent@VListBox@@AAEHXZ                        @2483 NONAME
?setFont@VListBox@@UAEXPAVVFont@@@Z                          @2484 NONAME
?refreshHorizontalScrollBars@VListBox@@AAEXXZ                @2485 NONAME
?getList@VListBox@@IAEPAVVOrdCollect@@XZ                     @2486 NONAME
?putTo@VListBox@@UAEXAAVVArchiver@@@Z                        @2487 NONAME
?putTo@VListBox@@IAEXAAVVArchiver@@H@Z                       @2488 NONAME
?getFrom@VListBox@@UAEXAAVVArchiver@@@Z                      @2489 NONAME
?getFrom@VListBox@@UAEXAAVVArchiver@@PAVVObject@@H@Z         @2490 NONAME
?realize@VListBox@@UAEXPAVVWindow@@@Z                        @2491 NONAME
?VListSelectVListSelect@@YAPAXXZ                             @2492 NONAME
?iam@VListSelect@@UAEPAVVClass@@XZ                           @2493 NONAME
??0VListSelect@@QAE@XZ                                       @2494 NONAME
??0VListSelect@@QAE@HPADPAVVOrdCollect@@PAHPAVVWindow@@@Z    @2495 NONAME
??RVListSelect@@QAEXHPADPAVVOrdCollect@@PAHPAVVWindow@@@Z    @2496 NONAME
??1VListSelect@@UAE@XZ                                       @2497 NONAME
?dialog@VListSelect@@SAHHPADPAPAVVString@@PAVVWindow@@@Z     @2498 NONAME
?dialog@VListSelect@@SAHHPADPAVVOrdCollect@@PAVVWindow@@@Z   @2499 NONAME
?centerWindow@VListSelect@@AAEXPAVVWindow@@@Z                @2500 NONAME
?VLocationVLocation@@YAPAXXZ                                 @2501 NONAME
?iam@VLocation@@UAEPAVVClass@@XZ                             @2502 NONAME
??0VLocation@@QAE@XZ                                         @2503 NONAME
?putTo@VLocation@@UAEXAAVVArchiver@@@Z                       @2504 NONAME
?getFrom@VLocation@@UAEXAAVVArchiver@@@Z                     @2505 NONAME
?getFrom@VLocation@@UAEXAAVVArchiver@@PAVVObject@@H@Z        @2506 NONAME
?VMdiAppViewVMdiAppView@@YAPAXXZ                             @2507 NONAME
?iam@VMdiAppView@@UAEPAVVClass@@XZ                           @2508 NONAME
??0VMdiAppView@@QAE@H@Z                                      @2509 NONAME
??0VMdiAppView@@QAE@ABVVFrame@@@Z                            @2510 NONAME
??0VMdiAppView@@QAE@ABVVFrame@@0ABVVStyle@@@Z                @2511 NONAME
??0VMdiAppView@@QAE@ABVVString@@ABVVFrame@@1ABVVStyle@@@Z    @2512 NONAME
??1VMdiAppView@@UAE@XZ                                       @2513 NONAME
??RVMdiAppView@@QAEXABVVFrame@@ABVVStyle@@@Z                 @2514 NONAME
??RVMdiAppView@@QAEXABVVFrame@@0ABVVStyle@@@Z                @2515 NONAME
??RVMdiAppView@@QAEXABVVFrame@@ABVVStyle@@ABVVString@@@Z     @2516 NONAME
??RVMdiAppView@@QAEXABVVFrame@@0ABVVStyle@@ABVVString@@@Z    @2517 NONAME
?initialize@VMdiAppView@@IAEXXZ                              @2518 NONAME
?getInfo@VMdiAppView@@MAEXAAVVWinInfo@@@Z                    @2519 NONAME
?addPopup@VMdiAppView@@UAEXPAVVObject@@@Z                    @2520 NONAME
?activate@VMdiAppView@@UAEHPAVVView@@@Z                      @2521 NONAME
?close@VMdiAppView@@UAEHXZ                                   @2522 NONAME
?quit@VMdiAppView@@UAEHXZ                                    @2523 NONAME
?showBool@VMdiAppView@@MAEXHH@Z                              @2524 NONAME
?winType@VMdiAppView@@UAE?AW4WinType@@XZ                     @2525 NONAME
?nextChildFocus@VMdiAppView@@UAEHPAVVWindow@@@Z              @2526 NONAME
?prevChildFocus@VMdiAppView@@UAEHPAVVWindow@@@Z              @2527 NONAME
?setChildFocus@VMdiAppView@@UAEXPAVVWindow@@@Z               @2528 NONAME
?getChildFocus@VMdiAppView@@UAEPAVVWindow@@XZ                @2529 NONAME
?putTo@VMdiAppView@@UAEXAAVVArchiver@@@Z                     @2530 NONAME
?putTo@VMdiAppView@@IAEXAAVVArchiver@@H@Z                    @2531 NONAME
?getFrom@VMdiAppView@@UAEXAAVVArchiver@@@Z                   @2532 NONAME
?getFrom@VMdiAppView@@UAEXAAVVArchiver@@PAVVObject@@H@Z      @2533 NONAME
?realize@VMdiAppView@@UAEXPAVVWindow@@@Z                     @2534 NONAME
?VMdiClientVMdiClient@@YAPAXXZ                               @2535 NONAME
?iam@VMdiClient@@UAEPAVVClass@@XZ                            @2536 NONAME
??0VMdiClient@@QAE@XZ                                        @2537 NONAME
?getInfo@VMdiClient@@MAEXAAVVWinInfo@@@Z                     @2538 NONAME
??1VMdiClient@@UAE@XZ                                        @2539 NONAME
?cascade@VMdiClient@@QAEHPAVVMenuItem@@@Z                    @2540 NONAME
?arrange@VMdiClient@@QAEHPAVVMenuItem@@@Z                    @2541 NONAME
?tile@VMdiClient@@QAEHPAVVMenuItem@@@Z                       @2542 NONAME
?activeChild@VMdiClient@@QAEPAVVMdiView@@XZ                  @2543 NONAME
?closeAll@VMdiClient@@QAEXXZ                                 @2544 NONAME
?quit@VMdiClient@@UAEHXZ                                     @2545 NONAME
?winType@VMdiClient@@UAE?AW4WinType@@XZ                      @2546 NONAME
?setMdiWinMenu@VMdiClient@@QAEXPAVVPopupMenu@@@Z             @2547 NONAME
?VMdiViewVMdiView@@YAPAXXZ                                   @2548 NONAME
?iam@VMdiView@@UAEPAVVClass@@XZ                              @2549 NONAME
??0VMdiView@@QAE@XZ                                          @2550 NONAME
??0VMdiView@@QAE@ABVVStyle@@PBDPAVVWindow@@PAD@Z             @2551 NONAME
??0VMdiView@@QAE@PBDABVVFrame@@PAVVWindow@@ABVVStyle@@PAD@Z  @2552 NONAME
??0VMdiView@@QAE@ABVVString@@ABVVStyle@@PBDPAVVWindow@@PAD@Z @2553 NONAME
??0VMdiView@@QAE@ABVVString@@PBDABVVFrame@@PAVVWindow@@ABVVStyle@@PAD@Z @2554 NONAME
??1VMdiView@@UAE@XZ                                          @2555 NONAME
?activate@VMdiView@@UAEHPAVVView@@@Z                         @2556 NONAME
?deactivate@VMdiView@@UAEHPAVVView@@@Z                       @2557 NONAME
?winType@VMdiView@@UAE?AW4WinType@@XZ                        @2558 NONAME
?isMaximized@VMdiView@@QAEHXZ                                @2559 NONAME
?isIconic@VMdiView@@QAEHXZ                                   @2560 NONAME
?close@VMdiView@@UAEHXZ                                      @2561 NONAME
?minimize@VMdiView@@QAEXXZ                                   @2562 NONAME
?maximize@VMdiView@@QAEXXZ                                   @2563 NONAME
??RVMdiView@@QAEXPBDABVVFrame@@PAVVWindow@@ABVVStyle@@PAD@Z  @2564 NONAME
??RVMdiView@@QAEXPBDABVVFrame@@PAVVWindow@@ABVVStyle@@PADABVVString@@@Z @2565 NONAME
?getInfo@VMdiView@@MAEXAAVVWinInfo@@@Z                       @2566 NONAME
?getClassDefaultStyle@VMdiView@@SAAAVVStyle@@XZ              @2567 NONAME
?getDefaultStyle@VMdiView@@UBEAAVVStyle@@XZ                  @2568 NONAME
?putTo@VMdiView@@UAEXAAVVArchiver@@@Z                        @2569 NONAME
?putTo@VMdiView@@IAEXAAVVArchiver@@H@Z                       @2570 NONAME
?getFrom@VMdiView@@UAEXAAVVArchiver@@@Z                      @2571 NONAME
?getFrom@VMdiView@@UAEXAAVVArchiver@@PAVVObject@@H@Z         @2572 NONAME
?realize@VMdiView@@UAEXPAVVWindow@@@Z                        @2573 NONAME
?VMemoryVMemory@@YAPAXXZ                                     @2574 NONAME
?iam@VMemory@@UAEPAVVClass@@XZ                               @2575 NONAME
??0VMemory@@QAE@XZ                                           @2576 NONAME
??0VMemory@@QAE@H@Z                                          @2577 NONAME
??1VMemory@@UAE@XZ                                           @2578 NONAME
?more@VMemory@@SAXPAVVObject@@P82@AEHXZ@Z                    @2579 NONAME
?fault@VMemory@@SAHH@Z                                       @2580 NONAME
?ismore@VMemory@@IAEHXZ                                      @2581 NONAME
?lmemory@VMemory@@SAPADPADJ@Z                                @2582 NONAME
??CVMemory@@QAEPAV0@XZ                                       @2583 NONAME
?memhndl@VMemory@@SAPAXPAXJH@Z                               @2584 NONAME
?sizehndl@VMemory@@SAIPAX@Z                                  @2585 NONAME
?lockhndl@VMemory@@SAPADPAX@Z                                @2586 NONAME
?unlockhndl@VMemory@@SAXPAX@Z                                @2587 NONAME
?init@VMemory@@IAEXXZ                                        @2588 NONAME
?VMenuVMenu@@YAPAXXZ                                         @2589 NONAME
?iam@VMenu@@UAEPAVVClass@@XZ                                 @2590 NONAME
??0VMenu@@QAE@HABVVString@@H@Z                               @2591 NONAME
??0VMenu@@QAE@PBDPAHPAP8VObject@@AEHXZPAV1@ABVVString@@H@Z   @2592 NONAME
?addItem@VMenu@@QAEXPAVVObject@@@Z                           @2593 NONAME
?addSeparator@VMenu@@QAEXXZ                                  @2594 NONAME
??1VMenu@@UAE@XZ                                             @2595 NONAME
?freeContents@VMenu@@QAEXXZ                                  @2596 NONAME
?setPopupClients@VMenu@@QAEXPAVVObject@@@Z                   @2597 NONAME
?removeItem@VMenu@@QAEHPAVVObject@@@Z                        @2598 NONAME
?bindItem@VMenu@@QAEXPAVVObject@@HH@Z                        @2599 NONAME
?addItem@VMenu@@QAEXPAVVObject@@H@Z                          @2600 NONAME
?insertItem@VMenu@@QAEXPAVVObject@@H@Z                       @2601 NONAME
?menuOf@VMenu@@QAEPAV1@PAUHMENU__@@@Z                        @2602 NONAME
?itemOf@VMenu@@QAEPAVVMenuItem@@I@Z                          @2603 NONAME
?buildPopup@VMenu@@IAEXPAUHMENU__@@PAHPAP8VObject@@AEHXZPAV3@@Z @2604 NONAME
?putTo@VMenu@@UAEXAAVVArchiver@@@Z                           @2605 NONAME
?putTo@VMenu@@IAEXAAVVArchiver@@H@Z                          @2606 NONAME
?getFrom@VMenu@@UAEXAAVVArchiver@@@Z                         @2607 NONAME
?getFrom@VMenu@@UAEXAAVVArchiver@@PAVVObject@@H@Z            @2608 NONAME
?realize@VMenu@@QAEHPAVVObject@@@Z                           @2609 NONAME
?realizeMenuItem@VMenu@@QAEXPAVVObject@@@Z                   @2610 NONAME
?initializeMenuClients@VMenu@@QAEXPAVVObject@@@Z             @2611 NONAME
?getPopupFromId@VMenu@@QAEPAVVPopupMenu@@H@Z                 @2612 NONAME
?getMenuItemFromId@VMenu@@QAEPAVVMenuItem@@H@Z               @2613 NONAME
?getMenuItemFromName@VMenu@@QAEPAVVMenuItem@@ABVVString@@@Z  @2614 NONAME
?getPopupFromName@VMenu@@QAEPAVVPopupMenu@@ABVVString@@@Z    @2615 NONAME
?VMenuItemVMenuItem@@YAPAXXZ                                 @2616 NONAME
?iam@VMenuItem@@UAEPAVVClass@@XZ                             @2617 NONAME
??0VMenuItem@@QAE@XZ                                         @2618 NONAME
??0VMenuItem@@QAE@IABVVString@@PAVVObject@@P82@AEHXZHH0@Z    @2619 NONAME
??0VMenuItem@@QAE@ABVVString@@PAVVObject@@P82@AEHXZHH0@Z     @2620 NONAME
??0VMenuItem@@QAE@ABV0@@Z                                    @2621 NONAME
??1VMenuItem@@UAE@XZ                                         @2622 NONAME
?init@VMenuItem@@IAEXPAVVObject@@P82@AEHXZHH@Z               @2623 NONAME
??4VMenuItem@@QAEAAV0@ABV0@@Z                                @2624 NONAME
?enable@VMenuItem@@QAEHH@Z                                   @2625 NONAME
?checked@VMenuItem@@QAEHXZ                                   @2626 NONAME
?enabled@VMenuItem@@QAEHXZ                                   @2627 NONAME
?selected@VMenuItem@@QAEHXZ                                  @2628 NONAME
?setClientMethod@VMenuItem@@QAEXPAVVObject@@P82@AEHXZH@Z     @2629 NONAME
?setClientMethod@VMenuItem@@QAEXPAVVObject@@P82@AEHXZ@Z      @2630 NONAME
?setAccel@VMenuItem@@QAEXH@Z                                 @2631 NONAME
?unsetAccel@VMenuItem@@QAEHXZ                                @2632 NONAME
?setLabel@VMenuItem@@QAEXABVVString@@@Z                      @2633 NONAME
?check@VMenuItem@@QAEHH@Z                                    @2634 NONAME
?getLabel@VMenuItem@@QAEAAVVString@@XZ                       @2635 NONAME
?setClient@VMenuItem@@QAEHPAVVObject@@@Z                     @2636 NONAME
?putTo@VMenuItem@@UAEXAAVVArchiver@@@Z                       @2637 NONAME
?putTo@VMenuItem@@IAEXAAVVArchiver@@H@Z                      @2638 NONAME
?getFrom@VMenuItem@@UAEXAAVVArchiver@@@Z                     @2639 NONAME
?getFrom@VMenuItem@@UAEXAAVVArchiver@@PAVVObject@@H@Z        @2640 NONAME
?VMouseCursorVMouseCursor@@YAPAXXZ                           @2641 NONAME
?iam@VMouseCursor@@UAEPAVVClass@@XZ                          @2642 NONAME
??0VMouseCursor@@QAE@XZ                                      @2643 NONAME
??1VMouseCursor@@UAE@XZ                                      @2644 NONAME
??0VMouseCursor@@QAE@PAD@Z                                   @2645 NONAME
??0VMouseCursor@@QAE@W4CursorShape@@@Z                       @2646 NONAME
?getCursorPos@VMouseCursor@@QAEXPAH0@Z                       @2647 NONAME
?setCursorPos@VMouseCursor@@QAEXHH@Z                         @2648 NONAME
?VMultiSetVMultiSet@@YAPAXXZ                                 @2649 NONAME
?iam@VMultiSet@@UAEPAVVClass@@XZ                             @2650 NONAME
??0VMultiSet@@QAE@XZ                                         @2651 NONAME
??0VMultiSet@@QAE@ABV0@@Z                                    @2652 NONAME
??1VMultiSet@@UAE@XZ                                         @2653 NONAME
?getValueAtKey@VMultiSet@@QBEJPBVVObject@@@Z                 @2654 NONAME
?atKeyPut@VMultiSet@@QAEHPAVVObject@@J@Z                     @2655 NONAME
??4VMultiSet@@QAEAAV0@ABV0@@Z                                @2656 NONAME
?addKey@VMultiSet@@QAEPAVVObject@@PAV2@@Z                    @2657 NONAME
?findKey@VMultiSet@@QBEPAVVObject@@PBV2@@Z                   @2658 NONAME
?containsKey@VMultiSet@@QBEHPBVVObject@@@Z                   @2659 NONAME
?removeKey@VMultiSet@@QAEPAVVObject@@PBV2@@Z                 @2660 NONAME
?MultiAssocMultiAssoc@VMultiSet@@SAPAXXZ                     @2661 NONAME
?iam@MultiAssoc@VMultiSet@@UAEPAVVClass@@XZ                  @2662 NONAME
??0MultiAssoc@VMultiSet@@QAE@XZ                              @2663 NONAME
?getFrom@MultiAssoc@VMultiSet@@UAEXAAVVArchiver@@@Z          @2664 NONAME
?getFrom@MultiAssoc@VMultiSet@@UAEXAAVVArchiver@@PAVVObject@@H@Z @2665 NONAME
?putTo@MultiAssoc@VMultiSet@@UAEXAAVVArchiver@@@Z            @2666 NONAME
??0MultiAssoc@VMultiSet@@QAE@PAVVObject@@J@Z                 @2667 NONAME
??0MultiAssoc@VMultiSet@@QAE@ABV01@@Z                        @2668 NONAME
?VMultiListBoxVMultiListBox@@YAPAXXZ                         @2669 NONAME
?iam@VMultiListBox@@UAEPAVVClass@@XZ                         @2670 NONAME
??1VMultiListBox@@UAE@XZ                                     @2671 NONAME
??0VMultiListBox@@QAE@IPAVVWindow@@@Z                        @2672 NONAME
??0VMultiListBox@@QAE@ABVVFrame@@PAVVWindow@@ABVVStyle@@@Z   @2673 NONAME
??0VMultiListBox@@QAE@PADABVVFrame@@PAVVWindow@@ABVVStyle@@@Z @2674 NONAME
?getInfo@VMultiListBox@@MAEXAAVVWinInfo@@@Z                  @2675 NONAME
?selected@VMultiListBox@@QBEHH@Z                             @2676 NONAME
?selectedCount@VMultiListBox@@QBEHXZ                         @2677 NONAME
?selectedItem@VMultiListBox@@QBEHH@Z                         @2678 NONAME
?selectedString@VMultiListBox@@QBEPAVVString@@H@Z            @2679 NONAME
?deselectItem@VMultiListBox@@QAEXJ@Z                         @2680 NONAME
?selectItem@VMultiListBox@@UAEXJ@Z                           @2681 NONAME
?deselectItem@VMultiListBox@@QAEXJJ@Z                        @2682 NONAME
?selectItem@VMultiListBox@@QAEXJJ@Z                          @2683 NONAME
??0VMultiListBox@@QAE@XZ                                     @2684 NONAME
?selectedItem@VMultiListBox@@UBEHXZ                          @2685 NONAME
?selectedString@VMultiListBox@@UBEPAVVString@@XZ             @2686 NONAME
?getStringAt@VMultiListBox@@UAEPAVVString@@H@Z               @2687 NONAME
?putTo@VMultiListBox@@UAEXAAVVArchiver@@@Z                   @2688 NONAME
?putTo@VMultiListBox@@IAEXAAVVArchiver@@H@Z                  @2689 NONAME
?getFrom@VMultiListBox@@UAEXAAVVArchiver@@@Z                 @2690 NONAME
?getFrom@VMultiListBox@@UAEXAAVVArchiver@@PAVVObject@@H@Z    @2691 NONAME
?realize@VMultiListBox@@UAEXPAVVWindow@@@Z                   @2692 NONAME
?VMultiSelectVMultiSelect@@YAPAXXZ                           @2693 NONAME
?iam@VMultiSelect@@UAEPAVVClass@@XZ                          @2694 NONAME
??0VMultiSelect@@QAE@XZ                                      @2695 NONAME
??0VMultiSelect@@QAE@HPADPAVVOrdCollect@@AAPAV1@PAVVWindow@@@Z @2696 NONAME
?construct@VMultiSelect@@IAEXHPADPAVVOrdCollect@@AAPAV2@PAVVWindow@@@Z @2697 NONAME
??1VMultiSelect@@UAE@XZ                                      @2698 NONAME
?dialog@VMultiSelect@@SAPAVVOrdCollect@@HPADPAPAVVString@@PAVVWindow@@@Z @2699 NONAME
?dialog@VMultiSelect@@SAPAVVOrdCollect@@HPADPAV2@PAVVWindow@@@Z @2700 NONAME
??0VMutex@@QAE@XZ                                            @2701 NONAME
??1VMutex@@QAE@XZ                                            @2702 NONAME
?lock@VMutex@@QAEXXZ                                         @2703 NONAME
?unlock@VMutex@@QAEXXZ                                       @2704 NONAME
?VNoteBookVNoteBook@@YAPAXXZ                                 @2705 NONAME
?iam@VNoteBook@@UAEPAVVClass@@XZ                             @2706 NONAME
??0VNoteBook@@QAE@XZ                                         @2707 NONAME
??0VNoteBook@@QAE@ABVVFrame@@PAVVWindow@@ABVVStyle@@@Z       @2708 NONAME
??0VNoteBook@@QAE@ABVVString@@ABVVFrame@@PAVVWindow@@ABVVStyle@@@Z @2709 NONAME
??1VNoteBook@@UAE@XZ                                         @2710 NONAME
?init@VNoteBook@@AAEXXZ                                      @2711 NONAME
?getInfo@VNoteBook@@MAEXAAVVWinInfo@@@Z                      @2712 NONAME
?uponPageActive@VNoteBook@@QAEXPAVVObject@@P82@AEHXZ@Z       @2713 NONAME
?setFont@VNoteBook@@UAEXPAVVFont@@@Z                         @2714 NONAME
?setTabStyles@VNoteBook@@QAEXW4BindingType@1@W4TabPlacement@1@@Z @2715 NONAME
?setTabDims@VNoteBook@@QAEXHHW4TabType@1@@Z                  @2716 NONAME
?getPageCaption@VNoteBook@@QBEXJAAVVString@@@Z               @2717 NONAME
?setPageCaption@VNoteBook@@QAEXJABVVString@@@Z               @2718 NONAME
?enablePage@VNoteBook@@QAEXJH@Z                              @2719 NONAME
?enableTabFocus@VNoteBook@@QAEXH@Z                           @2720 NONAME
?addPage@VNoteBook@@QAEJABVVString@@AAVVRscArchiver@@0W4PageType@1@W4PagePos@1@J@Z @2721 NONAME
?addPage@VNoteBook@@QAEJABVVString@@PAVVWindow@@W4PageType@1@W4PagePos@1@J@Z @2722 NONAME
?removePage@VNoteBook@@QAEXJ@Z                               @2723 NONAME
?removeAllPages@VNoteBook@@QAEXXZ                            @2724 NONAME
?findPage@VNoteBook@@QAEJABVVString@@@Z                      @2725 NONAME
?getFocusCandidate@VNoteBook@@UBEPAVVWindow@@H@Z             @2726 NONAME
?takeFocus@VNoteBook@@UAEHXZ                                 @2727 NONAME
?clearFocus@VNoteBook@@UAEHXZ                                @2728 NONAME
?givenFocus@VNoteBook@@UAEHXZ                                @2729 NONAME
?nextChildFocus@VNoteBook@@UAEHPAVVWindow@@@Z                @2730 NONAME
?prevChildFocus@VNoteBook@@UAEHPAVVWindow@@@Z                @2731 NONAME
?controlNextFocus@VNoteBook@@UAEHXZ                          @2732 NONAME
?controlPrevFocus@VNoteBook@@UAEHXZ                          @2733 NONAME
?getPrevChildFocusCandidate@VNoteBook@@UBEPAVVWindow@@PAV2@@Z @2734 NONAME
?getNextChildFocusCandidate@VNoteBook@@UBEPAVVWindow@@PAV2@@Z @2735 NONAME
?paint@VNoteBook@@UAEHXZ                                     @2736 NONAME
?erased@VNoteBook@@UAEHXZ                                    @2737 NONAME
?mouseDn@VNoteBook@@UAEHHH@Z                                 @2738 NONAME
?gotoPage@VNoteBook@@QAEHJ@Z                                 @2739 NONAME
?updateTabs@VNoteBook@@IAEXXZ                                @2740 NONAME
?key@VNoteBook@@UAEHHD@Z                                     @2741 NONAME
?loadPageWin@VNoteBook@@IAEPAVVWindow@@AAVVRscArchiver@@ABVVString@@@Z @2742 NONAME
?recalcSizes@VNoteBook@@IAEHH@Z                              @2743 NONAME
?resized@VNoteBook@@UAEHHH@Z                                 @2744 NONAME
?refresh@VNoteBook@@QAEXH@Z                                  @2745 NONAME
?putTo@VNoteBook@@UAEXAAVVArchiver@@@Z                       @2746 NONAME
?putTo@VNoteBook@@QAEXAAVVArchiver@@H@Z                      @2747 NONAME
?getFrom@VNoteBook@@UAEXAAVVArchiver@@@Z                     @2748 NONAME
?getFrom@VNoteBook@@UAEXAAVVArchiver@@PAVVObject@@H@Z        @2749 NONAME
?realize@VNoteBook@@UAEXPAVVWindow@@@Z                       @2750 NONAME
?loadResources@VNoteBook@@UAEHAAVVRscArchiver@@@Z            @2751 NONAME
?VNotePageVNotePage@@YAPAXXZ                                 @2752 NONAME
?iam@VNotePage@@UAEPAVVClass@@XZ                             @2753 NONAME
??0VNotePage@@QAE@XZ                                         @2754 NONAME
??0VNotePage@@QAE@ABVVString@@0PAVVWindow@@H@Z               @2755 NONAME
??1VNotePage@@UAE@XZ                                         @2756 NONAME
?getFrom@VNotePage@@UAEXAAVVArchiver@@@Z                     @2757 NONAME
?getFrom@VNotePage@@UAEXAAVVArchiver@@PAVVObject@@H@Z        @2758 NONAME
?putTo@VNotePage@@UAEXAAVVArchiver@@@Z                       @2759 NONAME
?VNotifierVNotifier@@YAPAXXZ                                 @2760 NONAME
?iam@VNotifier@@UAEPAVVClass@@XZ                             @2761 NONAME
?getVirtKey@VNotifier@@SAHF@Z                                @2762 NONAME
?systemColorsChanged@VNotifier@@QAEXPAVVWindow@@@Z           @2763 NONAME
?systemFontsChanged@VNotifier@@QAEXPAVVWindow@@@Z            @2764 NONAME
?systemMetricsChanged@VNotifier@@QAEXPAVVWindow@@@Z          @2765 NONAME
??0VNotifier@@QAE@XZ                                         @2766 NONAME
??0VNotifier@@QAE@H@Z                                        @2767 NONAME
?init@VNotifier@@IAEXXZ                                      @2768 NONAME
??1VNotifier@@UAE@XZ                                         @2769 NONAME
?setThis@VNotifier@@QAEHPAVVWindow@@@Z                       @2770 NONAME
?unsetThis@VNotifier@@QAEHPAVVWindow@@@Z                     @2771 NONAME
?start@VNotifier@@QAEXXZ                                     @2772 NONAME
?messageLoop@VNotifier@@IAEXW4LoopReason@@@Z                 @2773 NONAME
?measureItem@VNotifier@@QAEHJ@Z                              @2774 NONAME
?drawItem@VNotifier@@QAEHJ@Z                                 @2775 NONAME
?scrollItem@VNotifier@@QAEHPAUHWND__@@HIJPAVVWindow@@@Z      @2776 NONAME
?cvmessage@VNotifier@@QAEJPAUHWND__@@IIJAAPAVVWindow@@@Z     @2777 NONAME
?deleteAppView@VNotifier@@IAEXPAVVAppView@@@Z                @2778 NONAME
?destroyWin@VNotifier@@QAEXPAVVWindow@@@Z                    @2779 NONAME
?recreateWin@VNotifier@@QAEHPAVVWindow@@@Z                   @2780 NONAME
?createWin@VNotifier@@QAEHPAVVWindow@@HHHH@Z                 @2781 NONAME
?appViewDeleted@VNotifier@@QAEXPAVVAppView@@@Z               @2782 NONAME
?appViewConstructed@VNotifier@@QAEXPAVVAppView@@@Z           @2783 NONAME
?setAccelKeys@VNotifier@@QAEXPAHPAP8VObject@@AEHXZPAV2@@Z    @2784 NONAME
?exposedRect@VNotifier@@QAEPAVVRectangle@@XZ                 @2785 NONAME
?getExposedRectangle@VNotifier@@QAEHAAVVRectangle@@@Z        @2786 NONAME
?getExposedRectangle@VNotifier@@QAEHPAH000@Z                 @2787 NONAME
?beginWait@VNotifier@@QAEXXZ                                 @2788 NONAME
?beginWaitFor@VNotifier@@QAEXPAVVWindow@@@Z                  @2789 NONAME
?getCursorPos@VNotifier@@QAEXPAH0@Z                          @2790 NONAME
?buttonStatus@VNotifier@@QAEHXZ                              @2791 NONAME
?captureMouseFor@VNotifier@@QAEXPAVVWindow@@@Z               @2792 NONAME
?doKey@VNotifier@@QAEHH@Z                                    @2793 NONAME
?endWait@VNotifier@@QAEXXZ                                   @2794 NONAME
?getScreenSize@VNotifier@@QAEXPAH0@Z                         @2795 NONAME
?keyStatus@VNotifier@@QAEHH@Z                                @2796 NONAME
?endModal@VNotifier@@QAEXH@Z                                 @2797 NONAME
?startModal@VNotifier@@QAEXPAVVWindow@@@Z                    @2798 NONAME
?isModalWindowActive@VNotifier@@QAEHXZ                       @2799 NONAME
?isModalWindow@VNotifier@@QAEHPAVVWindow@@@Z                 @2800 NONAME
?enableTopLevelWindows@VNotifier@@CGHPAUHWND__@@J@Z          @2801 NONAME
?disableTopLevelWindows@VNotifier@@CGHPAUHWND__@@J@Z         @2802 NONAME
?setTopLevelWindowEnablement@VNotifier@@QAEXPAVVWindow@@H@Z  @2803 NONAME
?rbuttonStatus@VNotifier@@QAEHXZ                             @2804 NONAME
?setFocus@VNotifier@@QAEHPAVVWindow@@@Z                      @2805 NONAME
?releaseCapture@VNotifier@@QAEXXZ                            @2806 NONAME
?restoreCursor@VNotifier@@QAEXXZ                             @2807 NONAME
?unsetAccel@VNotifier@@QAEXH@Z                               @2808 NONAME
?setAccel@VNotifier@@QAEXHP8VObject@@AEHXZPAV2@@Z            @2809 NONAME
?setCursor@VNotifier@@QAEXW4CursorShape@@@Z                  @2810 NONAME
?yield@VNotifier@@QAEXXZ                                     @2811 NONAME
?yieldPaint@VNotifier@@QAEXPAVVWindow@@@Z                    @2812 NONAME
?pendingPaint@VNotifier@@QAEHPAVVWindow@@@Z                  @2813 NONAME
?mouseTracking@VNotifier@@QAEXH@Z                            @2814 NONAME
?errz@@YAHPAD@Z                                              @2815 NONAME
?lstrncmp@@YAHPAD0H@Z                                        @2816 NONAME
?lstrncmpi@@YAHPAD0H@Z                                       @2817 NONAME
?startTimer@VNotifier@@QAEIPAVVTimer@@I@Z                    @2818 NONAME
?stopTimer@VNotifier@@QAEXI@Z                                @2819 NONAME
?timerExpired@VNotifier@@QAEXI@Z                             @2820 NONAME
?createDialog@VNotifier@@QAEHPAVVWindow@@PBD@Z               @2821 NONAME
?useAccelResource@VNotifier@@QAEHPAD@Z                       @2822 NONAME
??CVNotifier@@QAEPAV0@XZ                                     @2823 NONAME
?mainwin@VNotifier@@QAEXPAUHINSTANCE__@@0PAD@Z               @2824 NONAME
?CTwindow@VNotifier@@QAEPADXZ                                @2825 NONAME
?DLGwindow@VNotifier@@QAEPADXZ                               @2826 NONAME
?mesgToType@@YAIW4MessageType@@@Z                            @2827 NONAME
?showCursor@VNotifier@@QAEXH@Z                               @2828 NONAME
?setCursorPos@VNotifier@@QAEXHH@Z                            @2829 NONAME
?mdimessage@VNotifier@@QAEJPAUHWND__@@IIJAAPAVVWindow@@@Z    @2830 NONAME
?whereIsMouse@VNotifier@@QAEPAVVWindow@@XZ                   @2831 NONAME
?setWindowRedrawUponResize@VNotifier@@QAEXH@Z                @2832 NONAME
?setWindowAutoErased@VNotifier@@QAEXH@Z                      @2833 NONAME
?isWindowRedrawUponResize@VNotifier@@QBEHXZ                  @2834 NONAME
?isWindowAutoErased@VNotifier@@QBEHXZ                        @2835 NONAME
?disableAutoRedraw@VNotifier@@QAEXXZ                         @2836 NONAME
?findWindow@VNotifier@@QAEPAVVWindow@@ABVVString@@PAVVClass@@@Z @2837 NONAME
?closeWindow@VNotifier@@QAEHPAVVWindow@@@Z                   @2838 NONAME
?quitApplication@VNotifier@@QAEHH@Z                          @2839 NONAME
?registerPaletteWindow@VNotifier@@QAEXPAVVWindow@@@Z         @2840 NONAME
?unregisterPaletteWindow@VNotifier@@QAEXPAVVWindow@@@Z       @2841 NONAME
?realizePalette@VNotifier@@QAEHPAVVWindow@@H@Z               @2842 NONAME
?setPainterMode@VNotifier@@QAEXH@Z                           @2843 NONAME
?getPainterMode@VNotifier@@QAEHXZ                            @2844 NONAME
?MsgFilterHook@VNotifier@@SGJHIJ@Z                           @2845 NONAME
?threeDEffectsAvailable@VNotifier@@QAEHXZ                    @2846 NONAME
?threeDEffectsAvailable@VNotifier@@QAEHW4V_3D_EFFECTS@@@Z    @2847 NONAME
?CommDlgProc@VNotifier@@SGJPAUHWND__@@IIJ@Z                  @2848 NONAME
?CBTHook@VNotifier@@SGJHIJ@Z                                 @2849 NONAME
?setExitCode@VNotifier@@QAEXH@Z                              @2850 NONAME
?numAppViews@VNotifier@@QAEJXZ                               @2851 NONAME
?getClientName@VNotifier@@QAEPAVVString@@PBVVObject@@J@Z     @2852 NONAME
?getClient@VNotifier@@QAEPAVVObject@@ABVVString@@PAJ@Z       @2853 NONAME
?bringAppToTop@VNotifier@@SAXXZ                              @2854 NONAME
?VObjArrayVObjArray@@YAPAXXZ                                 @2855 NONAME
?iam@VObjArray@@UAEPAVVClass@@XZ                             @2856 NONAME
?freeContents@VObjArray@@QAEXXZ                              @2857 NONAME
?reset@VObjArray@@UAEXXZ                                     @2858 NONAME
??0VObjArray@@QAE@XZ                                         @2859 NONAME
??0VObjArray@@QAE@J@Z                                        @2860 NONAME
?hash@VObjArray@@UBEJXZ                                      @2861 NONAME
?isEqual@VObjArray@@UBEHPAVVObject@@@Z                       @2862 NONAME
?atPutId@VObjArray@@QAEXJPAVVObject@@@Z                      @2863 NONAME
?contains@VObjArray@@QAEHPAVVObject@@@Z                      @2864 NONAME
?getFrom@VObjArray@@UAEXAAVVArchiver@@@Z                     @2865 NONAME
?getFrom@VObjArray@@UAEXAAVVArchiver@@PAVVObject@@H@Z        @2866 NONAME
?idAt@VObjArray@@QBEPAVVObject@@J@Z                          @2867 NONAME
?indexOf@VObjArray@@QBEJPBVVObject@@@Z                       @2868 NONAME
?indexOfSame@VObjArray@@QBEJPBVVObject@@@Z                   @2869 NONAME
?findSame@VObjArray@@QBEPAVVObject@@PBV2@@Z                  @2870 NONAME
?find@VObjArray@@QBEPAVVObject@@PBV2@@Z                      @2871 NONAME
?putTo@VObjArray@@UAEXAAVVArchiver@@@Z                       @2872 NONAME
??0VObjArray@@QAE@ABV0@@Z                                    @2873 NONAME
??4VObjArray@@QAEAAV0@ABV0@@Z                                @2874 NONAME
?add@VObjArray@@QAEXPAVVObject@@@Z                           @2875 NONAME
??AVObjArray@@QAEAAPAVVObject@@J@Z                           @2876 NONAME
?VObjectCourierVObjectCourier@@YAPAXXZ                       @2877 NONAME
?iam@VObjectCourier@@UAEPAVVClass@@XZ                        @2878 NONAME
??0VObjectCourier@@QAE@XZ                                    @2879 NONAME
??1VObjectCourier@@UAE@XZ                                    @2880 NONAME
?setObject@VObjectCourier@@UAEXPBVVObject@@@Z                @2881 NONAME
?archiveObject@VObjectCourier@@QAEXPBVVObject@@@Z            @2882 NONAME
?setupTypes@VObjectCourier@@IAEXPBVVObject@@@Z               @2883 NONAME
?contains@VObjectCourier@@UBEHABVVObjectType@@@Z             @2884 NONAME
?contains@VObjectCourier@@UBEHPBVVClass@@@Z                  @2885 NONAME
?getObject@VObjectCourier@@UBEPAVVObject@@PBVVClass@@@Z      @2886 NONAME
?VObjectVObject@@YAPAXXZ                                     @2887 NONAME
?iam@VObject@@UAEPAVVClass@@XZ                               @2888 NONAME
??0VObject@@QAE@XZ                                           @2889 NONAME
??1VObject@@UAE@XZ                                           @2890 NONAME
?nil@VObject@@QAEHXZ                                         @2891 NONAME
?reset@VObject@@UAEXXZ                                       @2892 NONAME
?free@VObject@@UAEHXZ                                        @2893 NONAME
?copy@VObject@@QAEPAV1@XZ                                    @2894 NONAME
?copyTo@VObject@@UAEHPAV1@@Z                                 @2895 NONAME
?copyFrom@VObject@@UAEHPAV1@@Z                               @2896 NONAME
?deepCopy@VObject@@QAEPAV1@PAV1@@Z                           @2897 NONAME
?deepCopy@VObject@@QAEPAV1@PAV1@0H@Z                         @2898 NONAME
?error@VObject@@UAEXPBD@Z                                    @2899 NONAME
?getFrom@VObject@@UAEXAAVVArchiver@@PAV1@H@Z                 @2900 NONAME
?getFrom@VObject@@UAEXAAVVArchiver@@@Z                       @2901 NONAME
?isEqual@VObject@@UBEHPAV1@@Z                                @2902 NONAME
?compare@VObject@@UBEHPAV1@@Z                                @2903 NONAME
?hash@VObject@@UBEJXZ                                        @2904 NONAME
?putTo@VObject@@UAEXAAVVArchiver@@@Z                         @2905 NONAME
?perform@VObject@@QAEHP81@AEHXZ@Z                            @2906 NONAME
?perform@VObject@@QAEHP81@AEHXZJ@Z                           @2907 NONAME
?perform@VObject@@QAEHP81@AEHXZJJ@Z                          @2908 NONAME
?perform@VObject@@QAEHP81@AEHXZJJJ@Z                         @2909 NONAME
?print@@YAXPADZZ                                             @2910 NONAME
?_assert@@YAXPBD0I@Z                                         @2911 NONAME
?fatal@@YAXXZ                                                @2912 NONAME
?currentTime@@YAJXZ                                          @2913 NONAME
?VObjectTypeVObjectType@@YAPAXXZ                             @2914 NONAME
?iam@VObjectType@@UAEPAVVClass@@XZ                           @2915 NONAME
??0VObjectType@@QAE@ABV0@@Z                                  @2916 NONAME
?set@VObjectType@@QAEXPBDH@Z                                 @2917 NONAME
?set@VObjectType@@QAEXPBVVClass@@@Z                          @2918 NONAME
?set@VObjectType@@QAEXABV1@@Z                                @2919 NONAME
??4VObjectType@@QAEAAV0@ABV0@@Z                              @2920 NONAME
??4VObjectType@@QAEAAV0@PBD@Z                                @2921 NONAME
??4VObjectType@@QAEAAV0@PBVVClass@@@Z                        @2922 NONAME
??8VObjectType@@QBEHABV0@@Z                                  @2923 NONAME
??8VObjectType@@QBEHPBD@Z                                    @2924 NONAME
?construct@VObjectType@@AAEXPBDH@Z                           @2925 NONAME
?realize@VObjectType@@AAEXXZ                                 @2926 NONAME
?destroy@VObjectType@@AAEXXZ                                 @2927 NONAME
?setupTypeName@VObjectType@@AAEXXZ                           @2928 NONAME
?VOrdCollectVOrdCollect@@YAPAXXZ                             @2929 NONAME
?iam@VOrdCollect@@UAEPAVVClass@@XZ                           @2930 NONAME
??0VOrdCollect@@QAE@XZ                                       @2931 NONAME
??0VOrdCollect@@QAE@I@Z                                      @2932 NONAME
??0VOrdCollect@@QAE@ABV0@@Z                                  @2933 NONAME
?count@VOrdCollect@@UBEJXZ                                   @2934 NONAME
?replaceSame@VOrdCollect@@UAEPAVVObject@@PAV2@0@Z            @2935 NONAME
?replaceAt@VOrdCollect@@UAEPAVVObject@@JPAV2@@Z              @2936 NONAME
?add@VOrdCollect@@UAEPAVVObject@@PAV2@@Z                     @2937 NONAME
?freeContents@VOrdCollect@@UAEXXZ                            @2938 NONAME
?getFrom@VOrdCollect@@UAEXAAVVArchiver@@@Z                   @2939 NONAME
?getFrom@VOrdCollect@@UAEXAAVVArchiver@@PAVVObject@@H@Z      @2940 NONAME
?findSame@VOrdCollect@@UBEPAVVObject@@PBV2@@Z                @2941 NONAME
?find@VOrdCollect@@UBEPAVVObject@@PBV2@@Z                    @2942 NONAME
?indexOf@VOrdCollect@@UBEJPAVVObject@@@Z                     @2943 NONAME
?indexOfSame@VOrdCollect@@UBEJPAVVObject@@@Z                 @2944 NONAME
?start@VOrdCollect@@UBEXAAVVIterator@@@Z                     @2945 NONAME
?end@VOrdCollect@@UBEXAAVVIterator@@@Z                       @2946 NONAME
?endIterator@VOrdCollect@@UBEXAAVVIterator@@@Z               @2947 NONAME
?next@VOrdCollect@@UBEPAVVObject@@AAVVIterator@@@Z           @2948 NONAME
?prev@VOrdCollect@@UBEPAVVObject@@AAVVIterator@@@Z           @2949 NONAME
?allFollowedBy@VOrdCollect@@UBEHAAVVIterator@@@Z             @2950 NONAME
?allPrecededBy@VOrdCollect@@UBEHAAVVIterator@@@Z             @2951 NONAME
?putTo@VOrdCollect@@UAEXAAVVArchiver@@@Z                     @2952 NONAME
?removeSame@VOrdCollect@@UAEPAVVObject@@PAV2@@Z              @2953 NONAME
?removeAt@VOrdCollect@@UAEPAVVObject@@J@Z                    @2954 NONAME
?sort@VOrdCollect@@QAEXHP8VObject@@AEHXZ@Z                   @2955 NONAME
?reset@VOrdCollect@@UAEXXZ                                   @2956 NONAME
?isEqual@VOrdCollect@@UBEHPAVVObject@@@Z                     @2957 NONAME
?hash@VOrdCollect@@UBEJXZ                                    @2958 NONAME
?insertAt@VOrdCollect@@UAEPAVVObject@@JPAV2@@Z               @2959 NONAME
?expandTo@VOrdCollect@@UAEXJ@Z                               @2960 NONAME
?idAt@VOrdCollect@@UBEPAVVObject@@J@Z                        @2961 NONAME
?copyFrom@VOrdCollect@@UAEHPAVVObject@@@Z                    @2962 NONAME
?VPannerVPanner@@YAPAXXZ                                     @2963 NONAME
?iam@VPanner@@UAEPAVVClass@@XZ                               @2964 NONAME
??0VPanner@@QAE@XZ                                           @2965 NONAME
??0VPanner@@QAE@ABVVFrame@@PAVVWindow@@ABVVStyle@@@Z         @2966 NONAME
??0VPanner@@QAE@PAVVWindow@@ABVVStyle@@@Z                    @2967 NONAME
??0VPanner@@QAE@ABVVString@@ABVVFrame@@PAVVWindow@@ABVVStyle@@@Z @2968 NONAME
??0VPanner@@QAE@ABVVString@@PAVVWindow@@ABVVStyle@@@Z        @2969 NONAME
??RVPanner@@QAEXABVVFrame@@PAVVWindow@@@Z                    @2970 NONAME
??RVPanner@@QAEXABVVFrame@@PAVVWindow@@ABVVStyle@@@Z         @2971 NONAME
??RVPanner@@QAEXABVVFrame@@PAVVWindow@@ABVVStyle@@ABVVString@@@Z @2972 NONAME
??1VPanner@@UAE@XZ                                           @2973 NONAME
?initialize@VPanner@@IAEXXZ                                  @2974 NONAME
?construct@VPanner@@IAEXXZ                                   @2975 NONAME
?createThumb@VPanner@@IAEXXZ                                 @2976 NONAME
?uponBeginChange@VPanner@@QAEXPAVVObject@@P82@AEHXZ@Z        @2977 NONAME
?uponChange@VPanner@@QAEXPAVVObject@@P82@AEHXZ@Z             @2978 NONAME
?uponEndChange@VPanner@@QAEXPAVVObject@@P82@AEHXZ@Z          @2979 NONAME
?beginChange@VPanner@@MAEXXZ                                 @2980 NONAME
?change@VPanner@@MAEHJJ@Z                                    @2981 NONAME
?endChange@VPanner@@MAEXXZ                                   @2982 NONAME
?setMargins@VPanner@@QAEXHHHH@Z                              @2983 NONAME
?setBackgroundColor@VPanner@@QAEXABVVColor@@@Z               @2984 NONAME
?setForegroundColor@VPanner@@QAEXABVVColor@@@Z               @2985 NONAME
?setDefaultColors@VPanner@@QAEXXZ                            @2986 NONAME
?getBackgroundColor@VPanner@@QBEAAVVColor@@XZ                @2987 NONAME
?getForegroundColor@VPanner@@QBEAAVVColor@@XZ                @2988 NONAME
?setThumbBorder@VPanner@@QAEXH@Z                             @2989 NONAME
?updateThumb@VPanner@@QAEXXZ                                 @2990 NONAME
?beginDragging@VPanner@@QAEXHH@Z                             @2991 NONAME
?drag@VPanner@@QAEXHHH@Z                                     @2992 NONAME
?endDragging@VPanner@@QAEXHH@Z                               @2993 NONAME
?getThumbGeometry@VPanner@@IBEXQAH0@Z                        @2994 NONAME
?resized@VPanner@@MAEHHH@Z                                   @2995 NONAME
?getInternalBorderGeometry@VPanner@@MBEXPAH000@Z             @2996 NONAME
?mouseDn@VPanner@@MAEHHH@Z                                   @2997 NONAME
?mouseMv@VPanner@@MAEHHHH@Z                                  @2998 NONAME
?mouseUp@VPanner@@MAEHHH@Z                                   @2999 NONAME
?newThumb@VPanner@@MAEPAVVWindow@@PAV1@@Z                    @3000 NONAME
??0ScrollData@VPanner@@QAE@XZ                                @3001 NONAME
?setPosition@ScrollData@VPanner@@QAEHHJ@Z                    @3002 NONAME
?setPositions@ScrollData@VPanner@@QAEHMM@Z                   @3003 NONAME
?setPageSize@ScrollData@VPanner@@QAEHHJ@Z                    @3004 NONAME
?setPageSizeRatio@ScrollData@VPanner@@QAEHHM@Z               @3005 NONAME
?setRange@ScrollData@VPanner@@QAEHHJJ@Z                      @3006 NONAME
?setValues@ScrollData@VPanner@@QAEHHJJJJ@Z                   @3007 NONAME
?setSubtractPageFromRange@ScrollData@VPanner@@QAEHH@Z        @3008 NONAME
?getPageSizeRatio@ScrollData@VPanner@@QBEMH@Z                @3009 NONAME
?getPositionRatio@ScrollData@VPanner@@QBEMH@Z                @3010 NONAME
??0Thumb@VPanner@@QAE@PAV1@@Z                                @3011 NONAME
?getPreferredSize@Thumb@VPanner@@MBEXPAH0@Z                  @3012 NONAME
?getMinimumSize@Thumb@VPanner@@MBEXPAH0@Z                    @3013 NONAME
?resized@Thumb@VPanner@@MAEHHH@Z                             @3014 NONAME
?paint@Thumb@VPanner@@MAEHXZ                                 @3015 NONAME
?mouseDn@Thumb@VPanner@@MAEHHH@Z                             @3016 NONAME
?mouseUp@Thumb@VPanner@@MAEHHH@Z                             @3017 NONAME
?putTo@VPanner@@UAEXAAVVArchiver@@@Z                         @3018 NONAME
?putTo@VPanner@@IAEXAAVVArchiver@@H@Z                        @3019 NONAME
?getFrom@VPanner@@UAEXAAVVArchiver@@@Z                       @3020 NONAME
?getFrom@VPanner@@UAEXAAVVArchiver@@PAVVObject@@H@Z          @3021 NONAME
?realize@VPanner@@UAEXPAVVWindow@@@Z                         @3022 NONAME
?VPathStringVPathString@@YAPAXXZ                             @3023 NONAME
?iam@VPathString@@UAEPAVVClass@@XZ                           @3024 NONAME
??0VPathString@@QAE@XZ                                       @3025 NONAME
??0VPathString@@QAE@PBD@Z                                    @3026 NONAME
??0VPathString@@QAE@ABVVString@@@Z                           @3027 NONAME
??0VPathString@@QAE@ABV0@@Z                                  @3028 NONAME
?addName@VPathString@@QAEAAV1@PBD@Z                          @3029 NONAME
?addName@VPathString@@QAEAAV1@ABVVString@@@Z                 @3030 NONAME
?buildPath@VPathString@@IAEXAAVVString@@PBD11@Z              @3031 NONAME
?environVar@VPathString@@IAEHPBDAAVVString@@@Z               @3032 NONAME
?environVar@VPathString@@IAEHABVVString@@AAV2@@Z             @3033 NONAME
?dotOf@VPathString@@IAEPADXZ                                 @3034 NONAME
?dotOf@VPathString@@IBEHAAVVString@@@Z                       @3035 NONAME
?directoryOf@VPathString@@QAEHAAVVString@@@Z                 @3036 NONAME
?driveOf@VPathString@@QAEHAAVVString@@@Z                     @3037 NONAME
?baseOf@VPathString@@QAEHAAVVString@@@Z                      @3038 NONAME
?suffixOf@VPathString@@QAEHAAVVString@@@Z                    @3039 NONAME
?prefixOf@VPathString@@QAEHAAVVString@@@Z                    @3040 NONAME
?isMatch@VPathString@@QAEHAAV1@@Z                            @3041 NONAME
?suffix@VPathString@@QAEXPBD@Z                               @3042 NONAME
?nameOf@VPathString@@QAEHAAVVString@@@Z                      @3043 NONAME
?isFile@VPathString@@QBEHXZ                                  @3044 NONAME
?isDirectory@VPathString@@QBEHXZ                             @3045 NONAME
?dolist@VPathString@@IAEHHAAVVOrdCollect@@PBDH@Z             @3046 NONAME
?dolist@VPathString@@IAEHHAAVVOrdCollect@@ABVVString@@H@Z    @3047 NONAME
?list@VPathString@@QAEHAAVVOrdCollect@@PBDH@Z                @3048 NONAME
?list@VPathString@@QAEHAAVVOrdCollect@@ABVVString@@H@Z       @3049 NONAME
?listNames@VPathString@@QAEHAAVVOrdCollect@@PBDH@Z           @3050 NONAME
?listNames@VPathString@@QAEHAAVVOrdCollect@@ABVVString@@H@Z  @3051 NONAME
?find@VPathString@@QAEHPBDH@Z                                @3052 NONAME
?find@VPathString@@QAEHABVVString@@H@Z                       @3053 NONAME
?expand@VPathString@@QAEXXZ                                  @3054 NONAME
?access@VPathString@@QAEHW4accessMode@@@Z                    @3055 NONAME
?modifyTime@VPathString@@QAEJXZ                              @3056 NONAME
?exists@VPathString@@QBEHXZ                                  @3057 NONAME
??AVPathString@@QAE?AVVString@@H@Z                           @3058 NONAME
?asCurrent@VPathString@@QAEHXZ                               @3059 NONAME
?createDirectory@VPathString@@QAEHABVVString@@AAV1@@Z        @3060 NONAME
?createDirectory@VPathString@@QAEHABVVString@@@Z             @3061 NONAME
?removeDirectory@VPathString@@QAEHH@Z                        @3062 NONAME
?setDrive@VPathString@@IAEHXZ                                @3063 NONAME
?setCurrent@VPathString@@QAEHXZ                              @3064 NONAME
?asParent@VPathString@@QAEHXZ                                @3065 NONAME
?move@VPathString@@QBEHABV1@@Z                               @3066 NONAME
?duplicate@VPathString@@QAEHABV1@H@Z                         @3067 NONAME
?remove@VPathString@@QBEHXZ                                  @3068 NONAME
?tempFile@VPathString@@QAEXXZ                                @3069 NONAME
?directory@VPathString@@QAEXABVVString@@@Z                   @3070 NONAME
?drive@VPathString@@QAEXABVVString@@@Z                       @3071 NONAME
?name@VPathString@@QAEXABVVString@@@Z                        @3072 NONAME
?suffix@VPathString@@QAEXABVVString@@@Z                      @3073 NONAME
?VPenVPen@@YAPAXXZ                                           @3074 NONAME
?iam@VPen@@UAEPAVVClass@@XZ                                  @3075 NONAME
??0VPen@@QAE@VVColor@@@Z                                     @3076 NONAME
??0VPen@@QAE@HW4LineType@@VVColor@@@Z                        @3077 NONAME
??0VPen@@QAE@XZ                                              @3078 NONAME
??1VPen@@UAE@XZ                                              @3079 NONAME
?make@VPen@@IAEHXZ                                           @3080 NONAME
?reset@VPen@@UAEXXZ                                          @3081 NONAME
?color@VPen@@QAEXABVVColor@@@Z                               @3082 NONAME
?pattern@VPen@@QAEXW4LineType@@@Z                            @3083 NONAME
?width@VPen@@QAEXH@Z                                         @3084 NONAME
?bind@VPen@@IAEXPAVVObject@@H@Z                              @3085 NONAME
?VPenInfoVPenInfo@@YAPAXXZ                                   @3086 NONAME
?iam@VPenInfo@@UAEPAVVClass@@XZ                              @3087 NONAME
??0VPenInfo@@QAE@XZ                                          @3088 NONAME
??0VPenInfo@@QAE@PBVVPen@@@Z                                 @3089 NONAME
?init@VPenInfo@@AAEXPBVVPen@@@Z                              @3090 NONAME
??1VPenInfo@@UAE@XZ                                          @3091 NONAME
?putTo@VPenInfo@@UAEXAAVVArchiver@@@Z                        @3092 NONAME
?getFrom@VPenInfo@@UAEXAAVVArchiver@@@Z                      @3093 NONAME
?getFrom@VPenInfo@@UAEXAAVVArchiver@@PAVVObject@@H@Z         @3094 NONAME
?VPicButtonVPicButton@@YAPAXXZ                               @3095 NONAME
?iam@VPicButton@@UAEPAVVClass@@XZ                            @3096 NONAME
??0VPicButton@@QAE@XZ                                        @3097 NONAME
??1VPicButton@@UAE@XZ                                        @3098 NONAME
?getInfo@VPicButton@@MAEXAAVVWinInfo@@@Z                     @3099 NONAME
?paint@VPicButton@@UAEHXZ                                    @3100 NONAME
?erased@VPicButton@@UAEHXZ                                   @3101 NONAME
?init@VPicButton@@IAEXPAH0PAPAVVBitMap@@@Z                   @3102 NONAME
??0VPicButton@@QAE@VVRatio@@0PAPAVVBitMap@@PAVVWindow@@ABVVStyle@@@Z @3103 NONAME
?setDefault@VPicButton@@UAEXH@Z                              @3104 NONAME
?drawDefFrame@VPicButton@@IAEXXZ                             @3105 NONAME
??0VPicButton@@QAE@VVRatio@@0PAPBDPAVVWindow@@ABVVStyle@@@Z  @3106 NONAME
??0VPicButton@@QAE@ABVVFrame@@PAVVWindow@@ABVVStyle@@@Z      @3107 NONAME
??0VPicButton@@QAE@ABVVString@@ABVVFrame@@PAVVWindow@@ABVVStyle@@@Z @3108 NONAME
?setBitMaps@VPicButton@@QAEXPAPAVVBitMap@@@Z                 @3109 NONAME
?setBitMaps@VPicButton@@QAEXPAPAD@Z                          @3110 NONAME
??0VPicButton@@QAE@IPAVVWindow@@@Z                           @3111 NONAME
?cleanUp@VPicButton@@IAEXXZ                                  @3112 NONAME
?VPointArrayVPointArray@@YAPAXXZ                             @3113 NONAME
?iam@VPointArray@@UAEPAVVClass@@XZ                           @3114 NONAME
??0VPointArray@@QAE@XZ                                       @3115 NONAME
??0VPointArray@@QAE@J@Z                                      @3116 NONAME
?add@VPointArray@@QAEXHH@Z                                   @3117 NONAME
?getpnt@VPointArray@@QAEHJPAH0@Z                             @3118 NONAME
?putpnt@VPointArray@@QAEXJHH@Z                               @3119 NONAME
?reset@VPointArray@@UAEXXZ                                   @3120 NONAME
?size@VPointArray@@UBEJXZ                                    @3121 NONAME
?copyFrom@VPointArray@@UAEHPAVVObject@@@Z                    @3122 NONAME
??0VPointArray@@QAE@ABV0@@Z                                  @3123 NONAME
??4VPointArray@@QAEAAV0@ABV0@@Z                              @3124 NONAME
?getFrom@VPointArray@@UAEXAAVVArchiver@@@Z                   @3125 NONAME
?getFrom@VPointArray@@UAEXAAVVArchiver@@PAVVObject@@H@Z      @3126 NONAME
?putTo@VPointArray@@UAEXAAVVArchiver@@@Z                     @3127 NONAME
?VPolygonVPolygon@@YAPAXXZ                                   @3128 NONAME
?iam@VPolygon@@UAEPAVVClass@@XZ                              @3129 NONAME
??0VPolygon@@QAE@XZ                                          @3130 NONAME
??0VPolygon@@QAE@PAVVPointArray@@@Z                          @3131 NONAME
?set@VPolygon@@QAEXPAVVPointArray@@@Z                        @3132 NONAME
?move@VPolygon@@UAEHHH@Z                                     @3133 NONAME
?pointIn@VPolygon@@UAEHHH@Z                                  @3134 NONAME
?VPopupWindowVPopupWindow@@YAPAXXZ                           @3135 NONAME
?iam@VPopupWindow@@UAEPAVVClass@@XZ                          @3136 NONAME
??0VPopupWindow@@QAE@XZ                                      @3137 NONAME
??1VPopupWindow@@UAE@XZ                                      @3138 NONAME
??0VPopupWindow@@QAE@ABVVFrame@@PAVVWindow@@ABVVStyle@@@Z    @3139 NONAME
??0VPopupWindow@@QAE@ABVVString@@ABVVFrame@@PAVVWindow@@ABVVStyle@@@Z @3140 NONAME
?stdSize@VPopupWindow@@SAXABVVStyle@@PAH1@Z                  @3141 NONAME
?getInfo@VPopupWindow@@MAEXAAVVWinInfo@@@Z                   @3142 NONAME
?getRel@VPopupWindow@@QAEXPAH000@Z                           @3143 NONAME
?isTopLevel@VPopupWindow@@UBEHXZ                             @3144 NONAME
?getSystemBorderSize@VPopupWindow@@UBEXPAH0@Z                @3145 NONAME
?putTo@VPopupWindow@@UAEXAAVVArchiver@@@Z                    @3146 NONAME
?putTo@VPopupWindow@@IAEXAAVVArchiver@@H@Z                   @3147 NONAME
?getFrom@VPopupWindow@@UAEXAAVVArchiver@@@Z                  @3148 NONAME
?getFrom@VPopupWindow@@UAEXAAVVArchiver@@PAVVObject@@H@Z     @3149 NONAME
?realize@VPopupWindow@@UAEXPAVVWindow@@@Z                    @3150 NONAME
?VPopupMenuVPopupMenu@@YAPAXXZ                               @3151 NONAME
?iam@VPopupMenu@@UAEPAVVClass@@XZ                            @3152 NONAME
??0VPopupMenu@@QAE@XZ                                        @3153 NONAME
??0VPopupMenu@@QAE@ABVVString@@0HH@Z                         @3154 NONAME
??0VPopupMenu@@QAE@PAUHMENU__@@ABVVString@@1HH@Z             @3155 NONAME
??0VPopupMenu@@QAE@ABVVMenuData@@@Z                          @3156 NONAME
?checkAt@VPopupMenu@@QAEXHH@Z                                @3157 NONAME
?enableAt@VPopupMenu@@QAEXHH@Z                               @3158 NONAME
?checkedAt@VPopupMenu@@QAEHH@Z                               @3159 NONAME
?enabledAt@VPopupMenu@@QAEHH@Z                               @3160 NONAME
?setAllClients@VPopupMenu@@QAEXPAVVObject@@@Z                @3161 NONAME
?setClientMethod@VPopupMenu@@QAEXPAVVObject@@P82@AEHXZH@Z    @3162 NONAME
?addItems@VPopupMenu@@QAEXPAPADPAP8VObject@@AEHXZPAV2@0@Z    @3163 NONAME
?addItems@VPopupMenu@@QAEXPAPADPAP8VObject@@AEHXZPAHPAV2@0@Z @3164 NONAME
?enableAll@VPopupMenu@@QAEXH@Z                               @3165 NONAME
?checkAll@VPopupMenu@@QAEXH@Z                                @3166 NONAME
??1VPopupMenu@@UAE@XZ                                        @3167 NONAME
?popupAt@VPopupMenu@@QAEXHH@Z                                @3168 NONAME
?uponSelect@VPopupMenu@@QAEXPAVVObject@@P82@AEHXZ@Z          @3169 NONAME
?selected@VPopupMenu@@QAEXXZ                                 @3170 NONAME
?copyFrom@VPopupMenu@@UAEHPAVVObject@@@Z                     @3171 NONAME
?setLabel@VPopupMenu@@QAEXABVVString@@@Z                     @3172 NONAME
?getLabel@VPopupMenu@@QAEABVVString@@XZ                      @3173 NONAME
?setPromptAt@VPopupMenu@@QAEXABVVString@@H@Z                 @3174 NONAME
?setLabelAt@VPopupMenu@@QAEXABVVString@@H@Z                  @3175 NONAME
?addMenuItem@VPopupMenu@@QAEXABVVMenuData@@PAVVObject@@@Z    @3176 NONAME
?addMenuItems@VPopupMenu@@QAEXPBVVMenuData@@PAVVObject@@@Z   @3177 NONAME
?addMenuItems@VPopupMenu@@QAAXVVMenuData@@ZZ                 @3178 NONAME
?getMenuItem@VPopupMenu@@QAEPAVVMenuItem@@H@Z                @3179 NONAME
?getMenuItem@VPopupMenu@@QAEPAVVMenuItem@@ABVVString@@@Z     @3180 NONAME
?setMenuItemLabel@VPopupMenu@@QAEXHABVVString@@@Z            @3181 NONAME
?setMenuItemPrompt@VPopupMenu@@QAEXHABVVString@@@Z           @3182 NONAME
?setMenuItemClient@VPopupMenu@@QAEXHPAVVObject@@@Z           @3183 NONAME
?setMenuItemCallback@VPopupMenu@@QAEXHP8VObject@@AEHXZPAV2@@Z @3184 NONAME
?enableMenuItem@VPopupMenu@@QAEXHH@Z                         @3185 NONAME
?checkMenuItem@VPopupMenu@@QAEXHH@Z                          @3186 NONAME
?check@VPopupMenu@@QAEXH@Z                                   @3187 NONAME
?uncheck@VPopupMenu@@QAEXH@Z                                 @3188 NONAME
?isChecked@VPopupMenu@@QBEHXZ                                @3189 NONAME
?enable@VPopupMenu@@QAEXH@Z                                  @3190 NONAME
?disable@VPopupMenu@@QAEXH@Z                                 @3191 NONAME
?isEnabled@VPopupMenu@@QBEHXZ                                @3192 NONAME
?getPopupMenu@VPopupMenu@@QAEPAV1@H@Z                        @3193 NONAME
?getPopupMenu@VPopupMenu@@QAEPAV1@ABVVString@@@Z             @3194 NONAME
?putTo@VPopupMenu@@UAEXAAVVArchiver@@@Z                      @3195 NONAME
?putTo@VPopupMenu@@IAEXAAVVArchiver@@H@Z                     @3196 NONAME
?getFrom@VPopupMenu@@UAEXAAVVArchiver@@@Z                    @3197 NONAME
?getFrom@VPopupMenu@@UAEXAAVVArchiver@@PAVVObject@@H@Z       @3198 NONAME
?VPortVPort@@YAPAXXZ                                         @3199 NONAME
?iam@VPort@@UAEPAVVClass@@XZ                                 @3200 NONAME
?init@VPort@@IAEXXZ                                          @3201 NONAME
??0VPort@@QAE@XZ                                             @3202 NONAME
??0VPort@@QAE@PAVVDisplay@@@Z                                @3203 NONAME
??1VPort@@UAE@XZ                                             @3204 NONAME
?setArea@VPort@@IAEXXZ                                       @3205 NONAME
?close@VPort@@QAEXXZ                                         @3206 NONAME
?drawLines@VPort@@QAEXPAVVPointArray@@@Z                     @3207 NONAME
?drawBitMap@VPort@@QAEXPAVVBitMap@@HH@Z                      @3208 NONAME
?eraseRegion@VPort@@QAEXPAVVRegion@@@Z                       @3209 NONAME
?fillRegion@VPort@@QAEXPAVVRegion@@H@Z                       @3210 NONAME
?frameRegion@VPort@@QAEXPAVVRegion@@@Z                       @3211 NONAME
?clean@VPort@@IAEXXZ                                         @3212 NONAME
?aspectRatio@VPort@@QAEMXZ                                   @3213 NONAME
?invertRegion@VPort@@QAEXPAVVRegion@@@Z                      @3214 NONAME
?isOpen@VPort@@QAEHXZ                                        @3215 NONAME
?lineTo@VPort@@QAEXHH@Z                                      @3216 NONAME
?xForm@VPort@@QAEHPAVVRectangle@@@Z                          @3217 NONAME
?unXform@VPort@@QAEHPAH0@Z                                   @3218 NONAME
?moveTo@VPort@@QAEXHH@Z                                      @3219 NONAME
?open@VPort@@QAEHXZ                                          @3220 NONAME
?openOn@VPort@@QAEHPAVVDisplay@@@Z                           @3221 NONAME
?reset@VPort@@UAEXXZ                                         @3222 NONAME
?setClipRgn@VPort@@QAEHPAVVRegion@@@Z                        @3223 NONAME
?viewPort@VPort@@QAEXW4RectOpts@@HHHH@Z                      @3224 NONAME
?viewPort@VPort@@QAEXPAVVRectangle@@@Z                       @3225 NONAME
?viewWindow@VPort@@QAEXW4RectOpts@@HHHH@Z                    @3226 NONAME
?viewWindow@VPort@@QAEXPAVVRectangle@@@Z                     @3227 NONAME
?useXform@VPort@@QAEHH@Z                                     @3228 NONAME
?unXform@VPort@@QAEHPAVVRectangle@@@Z                        @3229 NONAME
?xForm@VPort@@QAEHPAH0@Z                                     @3230 NONAME
?wrtText@VPort@@QAEHPBVVString@@HH@Z                         @3231 NONAME
?wrtText@VPort@@QAEHPBDHH@Z                                  @3232 NONAME
?useBrush@VPort@@QAEHPAVVBrush@@@Z                           @3233 NONAME
?usePen@VPort@@QAEHPAVVPen@@@Z                               @3234 NONAME
?useFont@VPort@@QAEHPAVVFont@@@Z                             @3235 NONAME
?rule@VPort@@QAEXW4RasterRule@@@Z                            @3236 NONAME
?clear@VPort@@QAEXXZ                                         @3237 NONAME
?currentPen@VPort@@QAEPAVVPen@@XZ                            @3238 NONAME
?currentBrush@VPort@@QAEPAVVBrush@@XZ                        @3239 NONAME
?currentFont@VPort@@QAEPAVVFont@@XZ                          @3240 NONAME
?pixelsPerInch@VPort@@QAEHPAH0@Z                             @3241 NONAME
?resetPen@VPort@@QAEHXZ                                      @3242 NONAME
?resetBrush@VPort@@QAEHXZ                                    @3243 NONAME
?resetFont@VPort@@QAEHXZ                                     @3244 NONAME
?textLineSpace@VPort@@QAEHXZ                                 @3245 NONAME
?scaleDeviceToLogical@VPort@@QAEHPAH0@Z                      @3246 NONAME
?scaleLogicalToDevice@VPort@@QAEHPAH0@Z                      @3247 NONAME
?enableBkColor@VPort@@QAEXH@Z                                @3248 NONAME
?wrtText@VPort@@QAEHPBDPAVVRectangle@@F@Z                    @3249 NONAME
?textSize@VPort@@QAEXPBDPAH1@Z                               @3250 NONAME
?drawIcon@VPort@@QAEXPAVVIcon@@HH@Z                          @3251 NONAME
?fillFrame@VPort@@QAEXPAVVRectangle@@0@Z                     @3252 NONAME
?VPrintAbortVPrintAbort@@YAPAXXZ                             @3253 NONAME
?iam@VPrintAbort@@UAEPAVVClass@@XZ                           @3254 NONAME
?CTalkAbortProc@@YGHPAUHDC__@@H@Z                            @3255 NONAME
??0VPrintAbort@@QAE@XZ                                       @3256 NONAME
??0VPrintAbort@@QAE@PAD0PAVVPrinter@@PAVVWindow@@@Z          @3257 NONAME
??RVPrintAbort@@QAEXPAD0PAVVPrinter@@PAVVWindow@@@Z          @3258 NONAME
??1VPrintAbort@@UAE@XZ                                       @3259 NONAME
?abortJob@VPrintAbort@@IAEHPAVVButton@@@Z                    @3260 NONAME
?close@VPrintAbort@@MAEHXZ                                   @3261 NONAME
?VPrintDialogVPrintDialog@@YAPAXXZ                           @3262 NONAME
?iam@VPrintDialog@@UAEPAVVClass@@XZ                          @3263 NONAME
??0VPrintDialog@@QAE@XZ                                      @3264 NONAME
??1VPrintDialog@@UAE@XZ                                      @3265 NONAME
??0VPrintDialog@@QAE@HPADPAPAVVPrinter@@PAVVWindow@@@Z       @3266 NONAME
??RVPrintDialog@@QAEXHPADPAPAVVPrinter@@PAVVWindow@@@Z       @3267 NONAME
?print@VPrintDialog@@SAHPADPAPAVVPrinter@@PAVVWindow@@@Z     @3268 NONAME
?setup@VPrintDialog@@SAHPAPAVVPrinter@@PAVVWindow@@@Z        @3269 NONAME
?VPrinterVPrinter@@YAPAXXZ                                   @3270 NONAME
?iam@VPrinter@@UAEPAVVClass@@XZ                              @3271 NONAME
??0VPrinter@@QAE@XZ                                          @3272 NONAME
??1VPrinter@@UAE@XZ                                          @3273 NONAME
?abort@VPrinter@@QAEXXZ                                      @3274 NONAME
?clean@VPrinter@@QAEXXZ                                      @3275 NONAME
?sizeOfImage@VPrinter@@UAEXPAH0@Z                            @3276 NONAME
?getHndl@VPrinter@@UAEPAUHDC__@@XZ                           @3277 NONAME
?newPage@VPrinter@@QAEXXZ                                    @3278 NONAME
?ungetHndl@VPrinter@@UAEXXZ                                  @3279 NONAME
??0VPrinter@@QAE@PBDH@Z                                      @3280 NONAME
?init@VPrinter@@QAEHXZ                                       @3281 NONAME
?documentName@VPrinter@@QAEXPBD@Z                            @3282 NONAME
?setDevice@VPrinter@@QAEXPAUHDC__@@PAX@Z                     @3283 NONAME
?VPushButtonVPushButton@@YAPAXXZ                             @3284 NONAME
?iam@VPushButton@@UAEPAVVClass@@XZ                           @3285 NONAME
??1VPushButton@@UAE@XZ                                       @3286 NONAME
?sizeOf@VPushButton@@UAEXPAH0@Z                              @3287 NONAME
??0VPushButton@@QAE@IPAVVWindow@@@Z                          @3288 NONAME
??0VPushButton@@QAE@VVRatio@@0PADPAVVWindow@@ABVVStyle@@@Z   @3289 NONAME
??0VPushButton@@QAE@ABVVFrame@@PAVVWindow@@ABVVStyle@@PAD@Z  @3290 NONAME
??0VPushButton@@QAE@ABVVString@@ABVVFrame@@PAVVWindow@@ABVVStyle@@PAD@Z @3291 NONAME
?getInfo@VPushButton@@MAEXAAVVWinInfo@@@Z                    @3292 NONAME
?isHilited@VPushButton@@UAEHXZ                               @3293 NONAME
?setDefault@VPushButton@@UAEXH@Z                             @3294 NONAME
?hilite@VPushButton@@UAEXH@Z                                 @3295 NONAME
??0VPushButton@@QAE@XZ                                       @3296 NONAME
?givenFocus@VPushButton@@UAEHXZ                              @3297 NONAME
?enterHit@VPushButton@@UAEHXZ                                @3298 NONAME
?clearFocus@VPushButton@@UAEHXZ                              @3299 NONAME
?getSystemBorderSize@VPushButton@@MBEXPAH0@Z                 @3300 NONAME
?putTo@VPushButton@@UAEXAAVVArchiver@@@Z                     @3301 NONAME
?putTo@VPushButton@@QAEXAAVVArchiver@@H@Z                    @3302 NONAME
?getFrom@VPushButton@@UAEXAAVVArchiver@@@Z                   @3303 NONAME
?getFrom@VPushButton@@UAEXAAVVArchiver@@PAVVObject@@H@Z      @3304 NONAME
?realize@VPushButton@@UAEXPAVVWindow@@@Z                     @3305 NONAME
?VRadioButtonVRadioButton@@YAPAXXZ                           @3306 NONAME
?iam@VRadioButton@@UAEPAVVClass@@XZ                          @3307 NONAME
??1VRadioButton@@UAE@XZ                                      @3308 NONAME
??0VRadioButton@@QAE@XZ                                      @3309 NONAME
??0VRadioButton@@QAE@IPAVVWindow@@@Z                         @3310 NONAME
??0VRadioButton@@QAE@VVRatio@@0PADPAVVWindow@@ABVVStyle@@@Z  @3311 NONAME
??0VRadioButton@@QAE@ABVVFrame@@PAVVWindow@@ABVVStyle@@PAD@Z @3312 NONAME
??0VRadioButton@@QAE@ABVVString@@ABVVFrame@@PAVVWindow@@ABVVStyle@@PAD@Z @3313 NONAME
?notify@VRadioButton@@MAEHH@Z                                @3314 NONAME
?check@VRadioButton@@UAEXH@Z                                 @3315 NONAME
?clicked@VRadioButton@@UAEHXZ                                @3316 NONAME
?toggle@VRadioButton@@UAEHXZ                                 @3317 NONAME
?getInfo@VRadioButton@@MAEXAAVVWinInfo@@@Z                   @3318 NONAME
?givenFocus@VRadioButton@@UAEHXZ                             @3319 NONAME
?clearFocus@VRadioButton@@UAEHXZ                             @3320 NONAME
?putTo@VRadioButton@@UAEXAAVVArchiver@@@Z                    @3321 NONAME
?putTo@VRadioButton@@QAEXAAVVArchiver@@H@Z                   @3322 NONAME
?getFrom@VRadioButton@@UAEXAAVVArchiver@@@Z                  @3323 NONAME
?getFrom@VRadioButton@@UAEXAAVVArchiver@@PAVVObject@@H@Z     @3324 NONAME
?realize@VRadioButton@@UAEXPAVVWindow@@@Z                    @3325 NONAME
?asString@VRatio@@QAEXAAVVString@@@Z                         @3326 NONAME
?fromString@VRatio@@QAEXAAVVString@@@Z                       @3327 NONAME
?asFloat@VRatio@@QAEXAAM@Z                                   @3328 NONAME
?initializeWindow@VRubberBand@@AAEXPAH0@Z                    @3329 NONAME
?deinitializeWindow@VRubberBand@@AAEXXZ                      @3330 NONAME
?createRubberBand@VRubberBand@@AAEXXZ                        @3331 NONAME
?destroyRubberBand@VRubberBand@@AAEXXZ                       @3332 NONAME
?drawRectangle@VRubberBand@@AAEXHHHH@Z                       @3333 NONAME
?drawLine@VRubberBand@@AAEXHHHH@Z                            @3334 NONAME
?captureMouse@VRubberBand@@AAEXPAVVWindow@@@Z                @3335 NONAME
?uncaptureMouse@VRubberBand@@AAEXXZ                          @3336 NONAME
?setThickness@VRubberBand@@QAEXH@Z                           @3337 NONAME
?setWindow@VRubberBand@@QAEXPAVVWindow@@@Z                   @3338 NONAME
??0VRubberBand@@QAE@PAVVWindow@@@Z                           @3339 NONAME
??1VRubberBand@@QAE@XZ                                       @3340 NONAME
?getCurrent@VRubberBand@@SAPAV1@XZ                           @3341 NONAME
?uponBeginResize@VRubberBand@@QAEXPAVVObject@@P82@AEHXZ@Z    @3342 NONAME
?uponResize@VRubberBand@@QAEXPAVVObject@@P82@AEHXZ@Z         @3343 NONAME
?uponBeginMove@VRubberBand@@QAEXPAVVObject@@P82@AEHXZ@Z      @3344 NONAME
?uponMove@VRubberBand@@QAEXPAVVObject@@P82@AEHXZ@Z           @3345 NONAME
?beginResizeCallback@VRubberBand@@AAEHXZ                     @3346 NONAME
?resizeCallback@VRubberBand@@AAEHHHAAH0H@Z                   @3347 NONAME
?beginMoveCallback@VRubberBand@@AAEHXZ                       @3348 NONAME
?moveCallback@VRubberBand@@AAEHAAH000HH@Z                    @3349 NONAME
?disableDrawing@VRubberBand@@QAEXH@Z                         @3350 NONAME
?undraw@VRubberBand@@QAEXXZ                                  @3351 NONAME
?draw@VRubberBand@@QAEXHHHH@Z                                @3352 NONAME
?resize@VRubberBand@@QAEHHAAH00000PAVVWindow@@@Z             @3353 NONAME
?move@VRubberBand@@QAEHAAH00000PAVVWindow@@@Z                @3354 NONAME
?resizeLine@VRubberBand@@QAEHAAH00000PAVVWindow@@@Z          @3355 NONAME
?moveLine@VRubberBand@@QAEHAAH00000PAVVWindow@@@Z            @3356 NONAME
?VRectangleVRectangle@@YAPAXXZ                               @3357 NONAME
?iam@VRectangle@@UAEPAVVClass@@XZ                            @3358 NONAME
??0VRectangle@@QAE@XZ                                        @3359 NONAME
??0VRectangle@@QAE@W4RectOpts@@HHHH@Z                        @3360 NONAME
?set@VRectangle@@QAEXW4RectOpts@@HHHH@Z                      @3361 NONAME
?get@VRectangle@@QAEXW4RectOpts@@PAH111@Z                    @3362 NONAME
?combine@VRectangle@@QAEPAVVRegion@@PAV2@W4RegionRule@@@Z    @3363 NONAME
?inset@VRectangle@@QAEHHH@Z                                  @3364 NONAME
?move@VRectangle@@UAEHHH@Z                                   @3365 NONAME
?pointIn@VRectangle@@UAEHHH@Z                                @3366 NONAME
?asPoints@VRectangle@@QAEPAVVPointArray@@XZ                  @3367 NONAME
?ungetHndl@VRectangle@@MAEXXZ                                @3368 NONAME
?getHndl@VRectangle@@MAEPAUHRGN__@@XZ                        @3369 NONAME
?fill@VRectangle@@MAEXPAVVPort@@@Z                           @3370 NONAME
?invert@VRectangle@@MAEXPAVVPort@@@Z                         @3371 NONAME
?VRegionVRegion@@YAPAXXZ                                     @3372 NONAME
?iam@VRegion@@UAEPAVVClass@@XZ                               @3373 NONAME
??0VRegion@@QAE@XZ                                           @3374 NONAME
??1VRegion@@UAE@XZ                                           @3375 NONAME
?move@VRegion@@UAEHHH@Z                                      @3376 NONAME
?pointIn@VRegion@@UAEHHH@Z                                   @3377 NONAME
?getHndl@VRegion@@MAEPAUHRGN__@@XZ                           @3378 NONAME
?ungetHndl@VRegion@@MAEXXZ                                   @3379 NONAME
?combine@VRegion@@QAEPAV1@PAV1@W4RegionRule@@@Z              @3380 NONAME
?fill@VRegion@@MAEXPAVVPort@@@Z                              @3381 NONAME
?invert@VRegion@@MAEXPAVVPort@@@Z                            @3382 NONAME
?VReportVReport@@YAPAXXZ                                     @3383 NONAME
?iam@VReport@@UAEPAVVClass@@XZ                               @3384 NONAME
??0VReport@@QAE@XZ                                           @3385 NONAME
??0VReport@@QAE@HPBDPAVVWindow@@0@Z                          @3386 NONAME
??RVReport@@QAEXHPBDPAVVWindow@@0@Z                          @3387 NONAME
??0VReport@@QAE@PADPAVVWindow@@@Z                            @3388 NONAME
??0VReport@@QAE@PAD0PAVVWindow@@@Z                           @3389 NONAME
??1VReport@@UAE@XZ                                           @3390 NONAME
?dialog@VReport@@SAXPAVVWindow@@PBDZZ                        @3391 NONAME
?dialog@VReport@@SAXPBDPAVVWindow@@0ZZ                       @3392 NONAME
?warning@VReport@@SAXPBDPAVVWindow@@0ZZ                      @3393 NONAME
??0VResult@@QAE@XZ                                           @3394 NONAME
?setResult@VResult@@QAEXJABVVResultReport@@@Z                @3395 NONAME
?setResult@VResult@@QAEXPAXHABVVResultReport@@@Z             @3396 NONAME
?asUserMessage@VResultReport@@UAEABVVString@@AAVVResult@@@Z  @3397 NONAME
?asSystemMessage@VResultReport@@UAEABVVString@@AAVVResult@@@Z @3398 NONAME
?asResultType@VResultReport@@UAEABVVString@@AAVVResult@@@Z   @3399 NONAME
?asUserResultType@VResultReport@@UAEABVVString@@AAVVResult@@@Z @3400 NONAME
?asSystemMessage@CIOResultReport@@UAEABVVString@@AAVVResult@@@Z @3401 NONAME
?asSystemMessage@MSWIOResultReport@@UAEABVVString@@AAVVResult@@@Z @3402 NONAME
?VRoundRectVRoundRect@@YAPAXXZ                               @3403 NONAME
?iam@VRoundRect@@UAEPAVVClass@@XZ                            @3404 NONAME
??0VRoundRect@@QAE@W4RectOpts@@HHHHM@Z                       @3405 NONAME
??0VRoundRect@@QAE@XZ                                        @3406 NONAME
?getHndl@VRoundRect@@MAEPAUHRGN__@@XZ                        @3407 NONAME
?fill@VRoundRect@@MAEXPAVVPort@@@Z                           @3408 NONAME
?invert@VRoundRect@@MAEXPAVVPort@@@Z                         @3409 NONAME
??0VResource@@QAE@XZ                                         @3410 NONAME
??1VResource@@QAE@XZ                                         @3411 NONAME
?open@VResource@@QAEHXZ                                      @3412 NONAME
?open@VResource@@QAEHABVVString@@@Z                          @3413 NONAME
?close@VResource@@QAEXXZ                                     @3414 NONAME
?loadWindow@VResource@@QAEHABVVString@@PAVVWindow@@1PAVVClass@@@Z @3415 NONAME
?loadContents@VResource@@QAEHABVVString@@PAVVWindow@@PAVVClass@@PAH3H@Z @3416 NONAME
?loadContents@VResource@@QAEHABVVString@@PAVVWindow@@PAVVClass@@1@Z @3417 NONAME
?loadMenu@VResource@@QAEPAVVMenu@@ABVVString@@PAVVWindow@@@Z @3418 NONAME
?loadBitMap@VResource@@QAEPAVVBitMap@@ABVVString@@@Z         @3419 NONAME
?realizeWindow@VResource@@QAEHABVVString@@PAVVWindow@@PAVVClass@@1@Z @3420 NONAME
?loadPopupMenu@VResource@@QAEPAVVPopupMenu@@ABVVString@@PAVVWindow@@@Z @3421 NONAME
?VRscArchiverVRscArchiver@@YAPAXXZ                           @3422 NONAME
?iam@VRscArchiver@@UAEPAVVClass@@XZ                          @3423 NONAME
??0VRscArchiver@@QAE@XZ                                      @3424 NONAME
??0VRscArchiver@@QAE@ABVVString@@@Z                          @3425 NONAME
??1VRscArchiver@@UAE@XZ                                      @3426 NONAME
?init@VRscArchiver@@IAEXABVVString@@@Z                       @3427 NONAME
?close@VRscArchiver@@UAEXXZ                                  @3428 NONAME
?rewind@VRscArchiver@@UAEXXZ                                 @3429 NONAME
?open@VRscArchiver@@UAEHH@Z                                  @3430 NONAME
?open@VRscArchiver@@UAEHHABVVString@@@Z                      @3431 NONAME
?getObject@VRscArchiver@@QAEPAVVObject@@ABVVString@@PAV2@PAVVClass@@1H@Z @3432 NONAME
?getObject@VRscArchiver@@UAEPAVVObject@@PAV2@0H@Z            @3433 NONAME
?getObject@VRscArchiver@@UAEPAVVObject@@PAV2@@Z              @3434 NONAME
?putObject@VRscArchiver@@QAEHABVVString@@PAVVObject@@H@Z     @3435 NONAME
?putObject@VRscArchiver@@UAEHPAVVObject@@H@Z                 @3436 NONAME
?getDirectory@VRscArchiver@@QAEAAVVBlockFileDir@@XZ          @3437 NONAME
?getDirectoryCount@VRscArchiver@@QAEIXZ                      @3438 NONAME
?getCurrentDirItem@VRscArchiver@@QAEPBVVBlockFileDirItem@@XZ @3439 NONAME
?contains@VRscArchiver@@QAEHABVVString@@PAVVClass@@@Z        @3440 NONAME
?remove@VRscArchiver@@QAEXABVVString@@PAVVClass@@@Z          @3441 NONAME
?write@VRscArchiver@@UAEJPBDJ@Z                              @3442 NONAME
?read@VRscArchiver@@UAEJPADJ@Z                               @3443 NONAME
?putch@VRscArchiver@@UAEHD@Z                                 @3444 NONAME
?getch@VRscArchiver@@UAEDXZ                                  @3445 NONAME
?putLine@VRscArchiver@@UAEJPBD@Z                             @3446 NONAME
?getTrimLine@VRscArchiver@@UAEJPADJ@Z                        @3447 NONAME
?beginWrite@VRscArchiver@@UAEXXZ                             @3448 NONAME
?endWrite@VRscArchiver@@UAEXXZ                               @3449 NONAME
?VSashVSash@@YAPAXXZ                                         @3450 NONAME
?iam@VSash@@UAEPAVVClass@@XZ                                 @3451 NONAME
??0VSash@@QAE@XZ                                             @3452 NONAME
??0VSash@@QAE@ABVVFrame@@PAVVWindow@@W4Style@0@@Z            @3453 NONAME
??0VSash@@QAE@ABVVString@@ABVVFrame@@PAVVWindow@@W4Style@0@@Z @3454 NONAME
??1VSash@@UAE@XZ                                             @3455 NONAME
?initialize@VSash@@AAEXXZ                                    @3456 NONAME
?constrainBySiblingSashes@VSash@@QAEXH@Z                     @3457 NONAME
?setStyle@VSash@@QAEXW4Style@1@@Z                            @3458 NONAME
?mouseEnter@VSash@@MAEHH@Z                                   @3459 NONAME
?mouseDn@VSash@@MAEHHH@Z                                     @3460 NONAME
?mouseDbl@VSash@@MAEHHH@Z                                    @3461 NONAME
?mouseUp@VSash@@MAEHHH@Z                                     @3462 NONAME
?mouseMv@VSash@@MAEHHHH@Z                                    @3463 NONAME
?setupForNextPosition@VSash@@AAEXHH@Z                        @3464 NONAME
?key@VSash@@MAEHHD@Z                                         @3465 NONAME
?drag@VSash@@QAEHXZ                                          @3466 NONAME
?paint@VSash@@MAEHXZ                                         @3467 NONAME
?disableClipping@VSash@@AAEXXZ                               @3468 NONAME
?restoreClipping@VSash@@AAEXXZ                               @3469 NONAME
?getMinSize@VSash@@EAEXAAF0@Z                                @3470 NONAME
?setupConstraints@VSash@@AAEXXZ                              @3471 NONAME
?erased@VSash@@UAEHXZ                                        @3472 NONAME
?getInfo@VSash@@MAEXAAVVWinInfo@@@Z                          @3473 NONAME
?systemColorChanged@VSash@@MAEXXZ                            @3474 NONAME
?putTo@VSash@@UAEXAAVVArchiver@@@Z                           @3475 NONAME
?putTo@VSash@@AAEXAAVVArchiver@@H@Z                          @3476 NONAME
?getFrom@VSash@@UAEXAAVVArchiver@@@Z                         @3477 NONAME
?getFrom@VSash@@UAEXAAVVArchiver@@PAVVObject@@H@Z            @3478 NONAME
?realize@VSash@@UAEXPAVVWindow@@@Z                           @3479 NONAME
?saveDialog@@YAHPAVVDialog@@ABVVString@@PAVVRscArchiver@@@Z  @3480 NONAME
?VScrollBarVScrollBar@@YAPAXXZ                               @3481 NONAME
?iam@VScrollBar@@UAEPAVVClass@@XZ                            @3482 NONAME
??0VScrollBar@@QAE@XZ                                        @3483 NONAME
??0VScrollBar@@QAE@IPAVVWindow@@@Z                           @3484 NONAME
??0VScrollBar@@QAE@ABVVFrame@@PAVVWindow@@ABVVStyle@@@Z      @3485 NONAME
??0VScrollBar@@QAE@ABVVString@@ABVVFrame@@PAVVWindow@@ABVVStyle@@@Z @3486 NONAME
?init@VScrollBar@@IAEXI@Z                                    @3487 NONAME
?getInfo@VScrollBar@@MAEXAAVVWinInfo@@@Z                     @3488 NONAME
?getCtlColor@VScrollBar@@MAEIXZ                              @3489 NONAME
??1VScrollBar@@UAE@XZ                                        @3490 NONAME
?sizeOf@VScrollBar@@MAEXPAH0@Z                               @3491 NONAME
?getMinSize@VScrollBar@@MAEXAAF0@Z                           @3492 NONAME
?getPos@VScrollBar@@QAEJXZ                                   @3493 NONAME
?lineDown@VScrollBar@@QAEXXZ                                 @3494 NONAME
?lineUp@VScrollBar@@QAEXXZ                                   @3495 NONAME
?pageDown@VScrollBar@@QAEXXZ                                 @3496 NONAME
?pageUp@VScrollBar@@QAEXXZ                                   @3497 NONAME
?isHidden@VScrollBar@@UAEHXZ                                 @3498 NONAME
?showBool@VScrollBar@@UAEXHH@Z                               @3499 NONAME
?track@VScrollBar@@UAEXJ@Z                                   @3500 NONAME
?uponChange@VScrollBar@@QAEXPAVVObject@@P82@AEHXZ@Z          @3501 NONAME
?uponEndChange@VScrollBar@@QAEXPAVVObject@@P82@AEHXZ@Z       @3502 NONAME
?uponLineClick@VScrollBar@@QAEXPAVVObject@@P82@AEHXZ@Z       @3503 NONAME
?uponPageClick@VScrollBar@@QAEXPAVVObject@@P82@AEHXZ@Z       @3504 NONAME
?setRange@VScrollBar@@QAEXJJ@Z                               @3505 NONAME
?setScrollAmts@VScrollBar@@QAEXJJ@Z                          @3506 NONAME
?setPos@VScrollBar@@QAEXJ@Z                                  @3507 NONAME
?setValues@VScrollBar@@QAEXJJJJ@Z                            @3508 NONAME
?setPageSize@VScrollBar@@QAEXJ@Z                             @3509 NONAME
?setScrollValues@VScrollBar@@QAEXJJJ@Z                       @3510 NONAME
?setScrollValues@VScrollBar@@QAEXJJJJ@Z                      @3511 NONAME
?setScrollValues@VScrollBar@@QAEXJJJJJJ@Z                    @3512 NONAME
?putText@VScrollBar@@QAEXABVVString@@@Z                      @3513 NONAME
?getText@VScrollBar@@UAEHPADI@Z                              @3514 NONAME
?getText@VScrollBar@@UAEHAAVVString@@@Z                      @3515 NONAME
?winType@VScrollBar@@UAE?AW4WinType@@XZ                      @3516 NONAME
??0VScrollBar@@QAE@HPAVVWindow@@@Z                           @3517 NONAME
?endScroll@VScrollBar@@UAEXJ@Z                               @3518 NONAME
?setVertical@VScrollBar@@QAEXH@Z                             @3519 NONAME
?setHorizontal@VScrollBar@@QAEXH@Z                           @3520 NONAME
?isVertical@VScrollBar@@QBEHXZ                               @3521 NONAME
?isHorizontal@VScrollBar@@QBEHXZ                             @3522 NONAME
?getPreferredSize@VScrollBar@@UBEXPAH0@Z                     @3523 NONAME
?putTo@VScrollBar@@UAEXAAVVArchiver@@@Z                      @3524 NONAME
?putTo@VScrollBar@@IAEXAAVVArchiver@@H@Z                     @3525 NONAME
?getFrom@VScrollBar@@UAEXAAVVArchiver@@@Z                    @3526 NONAME
?getFrom@VScrollBar@@UAEXAAVVArchiver@@PAVVObject@@H@Z       @3527 NONAME
?realize@VScrollBar@@UAEXPAVVWindow@@@Z                      @3528 NONAME
?VScrollWindowVScrollWindow@@YAPAXXZ                         @3529 NONAME
?iam@VScrollWindow@@UAEPAVVClass@@XZ                         @3530 NONAME
??0VScrollWindow@@QAE@XZ                                     @3531 NONAME
??0VScrollWindow@@QAE@ABVVFrame@@PAVVWindow@@ABVVStyle@@@Z   @3532 NONAME
??0VScrollWindow@@QAE@PAVVWindow@@ABVVStyle@@@Z              @3533 NONAME
??0VScrollWindow@@QAE@ABVVString@@ABVVFrame@@PAVVWindow@@ABVVStyle@@@Z @3534 NONAME
??0VScrollWindow@@QAE@ABVVString@@PAVVWindow@@ABVVStyle@@@Z  @3535 NONAME
??RVScrollWindow@@QAEXABVVFrame@@PAVVWindow@@@Z              @3536 NONAME
??RVScrollWindow@@QAEXABVVFrame@@PAVVWindow@@ABVVStyle@@@Z   @3537 NONAME
??RVScrollWindow@@QAEXABVVFrame@@PAVVWindow@@ABVVStyle@@ABVVString@@@Z @3538 NONAME
??1VScrollWindow@@UAE@XZ                                     @3539 NONAME
?initialize@VScrollWindow@@IAEXXZ                            @3540 NONAME
?construct@VScrollWindow@@IAEXXZ                             @3541 NONAME
?createHorizontalScroll@VScrollWindow@@IAEXXZ                @3542 NONAME
?createVerticalScroll@VScrollWindow@@IAEXXZ                  @3543 NONAME
?createView@VScrollWindow@@IAEXXZ                            @3544 NONAME
?newViewWindow@VScrollWindow@@MBEPAVVWindow@@XZ              @3545 NONAME
?newHorizontalScrollBar@VScrollWindow@@MBEPAVVScrollBar@@XZ  @3546 NONAME
?newVerticalScrollBar@VScrollWindow@@MBEPAVVScrollBar@@XZ    @3547 NONAME
?getHorizontalScrollThickness@VScrollWindow@@IBEHXZ          @3548 NONAME
?getVerticalScrollThickness@VScrollWindow@@IBEHXZ            @3549 NONAME
?setWorkWindow@VScrollWindow@@QAEXPAVVWindow@@@Z             @3550 NONAME
?setUnits@VScrollWindow@@QAEXH@Z                             @3551 NONAME
?setUnits@VScrollWindow@@QAEXHH@Z                            @3552 NONAME
?setHorizontalUnits@VScrollWindow@@QAEXH@Z                   @3553 NONAME
?setVerticalUnits@VScrollWindow@@QAEXH@Z                     @3554 NONAME
?useHorizontalScrollBar@VScrollWindow@@QAEXH@Z               @3555 NONAME
?useVerticalScrollBar@VScrollWindow@@QAEXH@Z                 @3556 NONAME
?setHorizontalScrollBar@VScrollWindow@@QAEXPAVVScrollBar@@@Z @3557 NONAME
?setVerticalScrollBar@VScrollWindow@@QAEXPAVVScrollBar@@@Z   @3558 NONAME
?setHorizontalScrollBarPosition@VScrollWindow@@QAEXH@Z       @3559 NONAME
?setVerticalScrollBarPosition@VScrollWindow@@QAEXH@Z         @3560 NONAME
?setHorizontalMargin@VScrollWindow@@QAEXH@Z                  @3561 NONAME
?setVerticalMargin@VScrollWindow@@QAEXH@Z                    @3562 NONAME
?setHorizontalScrollBarGap@VScrollWindow@@QAEXH@Z            @3563 NONAME
?setVerticalScrollBarGap@VScrollWindow@@QAEXH@Z              @3564 NONAME
?setHorizontalScrollBarLineIncrement@VScrollWindow@@QAEXH@Z  @3565 NONAME
?setVerticalScrollBarLineIncrement@VScrollWindow@@QAEXH@Z    @3566 NONAME
?setHorizontalScrollBarPageIncrement@VScrollWindow@@QAEXH@Z  @3567 NONAME
?setVerticalScrollBarPageIncrement@VScrollWindow@@QAEXH@Z    @3568 NONAME
?setScrollBarTracking@VScrollWindow@@QAEXH@Z                 @3569 NONAME
?setHorizontalScrollBarTracking@VScrollWindow@@QAEXH@Z       @3570 NONAME
?setVerticalScrollBarTracking@VScrollWindow@@QAEXH@Z         @3571 NONAME
?setHideScrollsWhenNotNeeded@VScrollWindow@@QAEXH@Z          @3572 NONAME
?hideScrollBars@VScrollWindow@@QAEXH@Z                       @3573 NONAME
?hideHorizontalScrollBar@VScrollWindow@@QAEXH@Z              @3574 NONAME
?hideVerticalScrollBar@VScrollWindow@@QAEXH@Z                @3575 NONAME
?setHorizontalWorkWindowStretchable@VScrollWindow@@QAEXH@Z   @3576 NONAME
?setVerticalWorkWindowStretchable@VScrollWindow@@QAEXH@Z     @3577 NONAME
?setMaximizeViewableWorkArea@VScrollWindow@@QAEXH@Z          @3578 NONAME
?setMaximizeViewableWorkAreaWidth@VScrollWindow@@QAEXH@Z     @3579 NONAME
?setMaximizeViewableWorkAreaHeight@VScrollWindow@@QAEXH@Z    @3580 NONAME
?setSmoothScrolling@VScrollWindow@@QAEXH@Z                   @3581 NONAME
?setHorizontalSmoothScrolling@VScrollWindow@@QAEXH@Z         @3582 NONAME
?setVerticalSmoothScrolling@VScrollWindow@@QAEXH@Z           @3583 NONAME
?setHorizontalScrollOrigin@VScrollWindow@@QAEXH@Z            @3584 NONAME
?setVerticalScrollOrigin@VScrollWindow@@QAEXH@Z              @3585 NONAME
?setPaintNub@VScrollWindow@@QAEXH@Z                          @3586 NONAME
?getScrollValues@VScrollWindow@@IBEXHQAJ@Z                   @3587 NONAME
?getScrollPosition@VScrollWindow@@IBEJHJ@Z                   @3588 NONAME
?mapScrollValue@VScrollWindow@@IAEXHAAJAAM@Z                 @3589 NONAME
?updateWorkArea@VScrollWindow@@QAEXPBVVRectangle@@@Z         @3590 NONAME
?updateConfiguration@VScrollWindow@@IAEXHH@Z                 @3591 NONAME
?updateLayout@VScrollWindow@@IAEXHH@Z                        @3592 NONAME
?setHorizontalScrollValues@VScrollWindow@@IAEXXZ             @3593 NONAME
?setVerticalScrollValues@VScrollWindow@@IAEXXZ               @3594 NONAME
?scroll@VScrollWindow@@QAEXJJ@Z                              @3595 NONAME
?scrollHorizontal@VScrollWindow@@QAEXJ@Z                     @3596 NONAME
?scrollVertical@VScrollWindow@@QAEXJ@Z                       @3597 NONAME
?scrollLineUp@VScrollWindow@@QAEXJJ@Z                        @3598 NONAME
?scrollHorizontalLineUp@VScrollWindow@@QAEXJ@Z               @3599 NONAME
?scrollVerticalLineUp@VScrollWindow@@QAEXJ@Z                 @3600 NONAME
?scrollLineDown@VScrollWindow@@QAEXJJ@Z                      @3601 NONAME
?scrollHorizontalLineDown@VScrollWindow@@QAEXJ@Z             @3602 NONAME
?scrollVerticalLineDown@VScrollWindow@@QAEXJ@Z               @3603 NONAME
?scrollPageUp@VScrollWindow@@QAEXJJ@Z                        @3604 NONAME
?scrollHorizontalPageUp@VScrollWindow@@QAEXJ@Z               @3605 NONAME
?scrollVerticalPageUp@VScrollWindow@@QAEXJ@Z                 @3606 NONAME
?scrollPageDown@VScrollWindow@@QAEXJJ@Z                      @3607 NONAME
?scrollHorizontalPageDown@VScrollWindow@@QAEXJ@Z             @3608 NONAME
?scrollVerticalPageDown@VScrollWindow@@QAEXJ@Z               @3609 NONAME
?scrollHorizontalHome@VScrollWindow@@QAEXXZ                  @3610 NONAME
?scrollVerticalHome@VScrollWindow@@QAEXXZ                    @3611 NONAME
?scrollHome@VScrollWindow@@QAEXXZ                            @3612 NONAME
?scrollHorizontalEnd@VScrollWindow@@QAEXXZ                   @3613 NONAME
?scrollVerticalEnd@VScrollWindow@@QAEXXZ                     @3614 NONAME
?scrollEnd@VScrollWindow@@QAEXXZ                             @3615 NONAME
?scrollPixel@VScrollWindow@@QAEXJJ@Z                         @3616 NONAME
?scrollHorizontalPixel@VScrollWindow@@QAEXJ@Z                @3617 NONAME
?scrollVerticalPixel@VScrollWindow@@QAEXJ@Z                  @3618 NONAME
?scrollRatioTo@VScrollWindow@@QAEHMM@Z                       @3619 NONAME
?scrollHorizontalRatioTo@VScrollWindow@@QAEHM@Z              @3620 NONAME
?scrollVerticalRatioTo@VScrollWindow@@QAEHM@Z                @3621 NONAME
?endScroll@VScrollWindow@@QAEXXZ                             @3622 NONAME
?horizontalScrollCallback@VScrollWindow@@IAEXJ@Z             @3623 NONAME
?horizontalScrollEndCallback@VScrollWindow@@IAEXXZ           @3624 NONAME
?horizontalScrollLineCallback@VScrollWindow@@IAEHH@Z         @3625 NONAME
?horizontalScrollPageCallback@VScrollWindow@@IAEHH@Z         @3626 NONAME
?verticalScrollCallback@VScrollWindow@@IAEXJ@Z               @3627 NONAME
?verticalScrollEndCallback@VScrollWindow@@IAEXXZ             @3628 NONAME
?verticalScrollLineCallback@VScrollWindow@@IAEHH@Z           @3629 NONAME
?verticalScrollPageCallback@VScrollWindow@@IAEHH@Z           @3630 NONAME
?scrolledHorizontal@VScrollWindow@@MAEXJH@Z                  @3631 NONAME
?scrolledVertical@VScrollWindow@@MAEXJH@Z                    @3632 NONAME
?performScroll@VScrollWindow@@IAEXHH@Z                       @3633 NONAME
?resized@VScrollWindow@@MAEHHH@Z                             @3634 NONAME
?getPreferredSize@VScrollWindow@@UBEXPAH0@Z                  @3635 NONAME
?getMinimumSize@VScrollWindow@@UBEXPAH0@Z                    @3636 NONAME
?paint@VScrollWindow@@MAEHXZ                                 @3637 NONAME
?paintNub@VScrollWindow@@IAEXH@Z                             @3638 NONAME
?getNubGeometry@VScrollWindow@@IBEXAAH000@Z                  @3639 NONAME
?mouseEnter@VScrollWindow@@MAEHH@Z                           @3640 NONAME
?mouseExit@VScrollWindow@@MAEHH@Z                            @3641 NONAME
?mouseDn@VScrollWindow@@MAEHHH@Z                             @3642 NONAME
?mouseMv@VScrollWindow@@MAEHHHH@Z                            @3643 NONAME
?mouseUp@VScrollWindow@@MAEHHH@Z                             @3644 NONAME
?mouseDbl@VScrollWindow@@MAEHHH@Z                            @3645 NONAME
?mouseWheel@VScrollWindow@@MAEHHHHH@Z                        @3646 NONAME
?rmouseDn@VScrollWindow@@MAEHHH@Z                            @3647 NONAME
?mmouseDn@VScrollWindow@@MAEHHH@Z                            @3648 NONAME
?mmouseUp@VScrollWindow@@MAEHHH@Z                            @3649 NONAME
?key@VScrollWindow@@MAEHHD@Z                                 @3650 NONAME
?createPanner@VScrollWindow@@MAEXXZ                          @3651 NONAME
?getPannerBox@VScrollWindow@@QBEPAVVUtilityWindow@@XZ        @3652 NONAME
?getPanner@VScrollWindow@@QBEPAVVPanner@@XZ                  @3653 NONAME
?showPanner@VScrollWindow@@QAEXH@Z                           @3654 NONAME
?pannerClosed@VScrollWindow@@IAEXPAVVObject@@@Z              @3655 NONAME
?pannerShown@VScrollWindow@@MAEXH@Z                          @3656 NONAME
?pannerMouseDbl@VScrollWindow@@IAEXPAVVObject@@HH@Z          @3657 NONAME
?disassociatePanner@VScrollWindow@@QAEXPAVVPanner@@@Z        @3658 NONAME
?associatePanner@VScrollWindow@@QAEXPAVVPanner@@@Z           @3659 NONAME
?pannerCallback@VScrollWindow@@IAEHJJ@Z                      @3660 NONAME
?pannerEndCallback@VScrollWindow@@IAEXXZ                     @3661 NONAME
?updatePanner@VScrollWindow@@IAEXPAVVPanner@@H@Z             @3662 NONAME
??0AutoScroll@@AAE@XZ                                        @3663 NONAME
??1AutoScroll@@EAE@XZ                                        @3664 NONAME
?begin@AutoScroll@@SAXPAVVScrollWindow@@HH@Z                 @3665 NONAME
?update@AutoScroll@@SAXHH@Z                                  @3666 NONAME
?end@AutoScroll@@SAXXZ                                       @3667 NONAME
?getTimePerElement@AutoScroll@@CAHHH@Z                       @3668 NONAME
?timeout@AutoScroll@@AAEXPAVVObject@@@Z                      @3669 NONAME
?cleanup@AutoScroll@@SAXXZ                                   @3670 NONAME
?beginAutoScroll@VScrollWindow@@IAEXHH@Z                     @3671 NONAME
?autoScroll@VScrollWindow@@IAEXHH@Z                          @3672 NONAME
?endAutoScroll@VScrollWindow@@IAEXXZ                         @3673 NONAME
?destroyAutoScrollData@VScrollWindow@@KAXXZ                  @3674 NONAME
?getPreferredSize@Manager@VScrollWindow@@UAEXPAH0@Z          @3675 NONAME
?getConstrainedSize@Manager@VScrollWindow@@UAEHPAH0HH@Z      @3676 NONAME
?getMinimumSize@Manager@VScrollWindow@@UAEXPAH0@Z            @3677 NONAME
??0ViewWindow@VScrollWindow@@QAE@PAV1@@Z                     @3678 NONAME
?erased@ViewWindow@VScrollWindow@@MAEHXZ                     @3679 NONAME
?paint@ViewWindow@VScrollWindow@@MAEHXZ                      @3680 NONAME
?mouseEnter@ViewWindow@VScrollWindow@@MAEHH@Z                @3681 NONAME
?mouseExit@ViewWindow@VScrollWindow@@MAEHH@Z                 @3682 NONAME
?mouseDn@ViewWindow@VScrollWindow@@MAEHHH@Z                  @3683 NONAME
?mouseUp@ViewWindow@VScrollWindow@@MAEHHH@Z                  @3684 NONAME
?mouseMv@ViewWindow@VScrollWindow@@MAEHHHH@Z                 @3685 NONAME
?mouseDbl@ViewWindow@VScrollWindow@@MAEHHH@Z                 @3686 NONAME
?rmouseDn@ViewWindow@VScrollWindow@@MAEHHH@Z                 @3687 NONAME
?mmouseDn@ViewWindow@VScrollWindow@@MAEHHH@Z                 @3688 NONAME
?mmouseUp@ViewWindow@VScrollWindow@@MAEHHH@Z                 @3689 NONAME
?key@ViewWindow@VScrollWindow@@MAEHHD@Z                      @3690 NONAME
?newConfigurationMenu@VScrollWindow@@UBEPAVVPopupMenu@@XZ    @3691 NONAME
??0ConfigurationMenu@VScrollWindow@@QAE@PAV1@@Z              @3692 NONAME
?poppedUp@ConfigurationMenu@VScrollWindow@@AAEXPAVVPopupMenu@@@Z @3693 NONAME
?poppedUpScrolls@ConfigurationMenu@VScrollWindow@@AAEXPAVVPopupMenu@@@Z @3694 NONAME
?poppedUpHorizontalScroll@ConfigurationMenu@VScrollWindow@@AAEXPAVVPopupMenu@@@Z @3695 NONAME
?poppedUpVerticalScroll@ConfigurationMenu@VScrollWindow@@AAEXPAVVPopupMenu@@@Z @3696 NONAME
?menuPanner@ConfigurationMenu@VScrollWindow@@AAEXPAVVMenuItem@@@Z @3697 NONAME
?menuSmooth@ConfigurationMenu@VScrollWindow@@AAEXPAVVMenuItem@@@Z @3698 NONAME
?menuMaximize@ConfigurationMenu@VScrollWindow@@AAEXPAVVMenuItem@@@Z @3699 NONAME
?menuScrollsNone@ConfigurationMenu@VScrollWindow@@AAEXPAVVMenuItem@@@Z @3700 NONAME
?menuScrollsTrack@ConfigurationMenu@VScrollWindow@@AAEXPAVVMenuItem@@@Z @3701 NONAME
?menuHorizontalScrollNone@ConfigurationMenu@VScrollWindow@@AAEXPAVVMenuItem@@@Z @3702 NONAME
?menuHorizontalScrollPosition@ConfigurationMenu@VScrollWindow@@AAEXPAVVMenuItem@@@Z @3703 NONAME
?menuHorizontalScrollTrack@ConfigurationMenu@VScrollWindow@@AAEXPAVVMenuItem@@@Z @3704 NONAME
?menuVerticalScrollNone@ConfigurationMenu@VScrollWindow@@AAEXPAVVMenuItem@@@Z @3705 NONAME
?menuVerticalScrollPosition@ConfigurationMenu@VScrollWindow@@AAEXPAVVMenuItem@@@Z @3706 NONAME
?menuVerticalScrollTrack@ConfigurationMenu@VScrollWindow@@AAEXPAVVMenuItem@@@Z @3707 NONAME
?putTo@VScrollWindow@@UAEXAAVVArchiver@@@Z                   @3708 NONAME
?putTo@VScrollWindow@@IAEXAAVVArchiver@@H@Z                  @3709 NONAME
?getFrom@VScrollWindow@@UAEXAAVVArchiver@@@Z                 @3710 NONAME
?getFrom@VScrollWindow@@UAEXAAVVArchiver@@PAVVObject@@H@Z    @3711 NONAME
?realize@VScrollWindow@@UAEXPAVVWindow@@@Z                   @3712 NONAME
??0ScrollData@VScrollWindow@@QAE@XZ                          @3713 NONAME
??1ScrollData@VScrollWindow@@QAE@XZ                          @3714 NONAME
?setUnits@ScrollData@VScrollWindow@@QAEXPAV2@HH@Z            @3715 NONAME
?setMaximizeViewableWorkArea@ScrollData@VScrollWindow@@QAEXPAV2@HH@Z @3716 NONAME
?setSmoothScrolling@ScrollData@VScrollWindow@@QAEXPAV2@HH@Z  @3717 NONAME
?setOppositeScrollOrigin@ScrollData@VScrollWindow@@QAEXPAV2@HH@Z @3718 NONAME
?mapToCell@ScrollData@VScrollWindow@@QBEHHHAAJ0@Z            @3719 NONAME
?mapToCells@ScrollData@VScrollWindow@@QBEHHHHHAAJ0AAH1@Z     @3720 NONAME
?isCellViewable@VScrollWindow@@QBEHJJ@Z                      @3721 NONAME
?getCellRangeGeometry@ScrollData@VScrollWindow@@QBEHJJHHAAH000@Z @3722 NONAME
?getCellGeometry@ScrollData@VScrollWindow@@QBEHJJAAH000@Z    @3723 NONAME
?getWorkAreaPixelWH@ScrollData@VScrollWindow@@QBEJPBV2@HJJ@Z @3724 NONAME
?getViewableWorkAreaRatio@ScrollData@VScrollWindow@@QBEXAAM000@Z @3725 NONAME
?update@ScrollData@VScrollWindow@@QAEXPAV2@@Z                @3726 NONAME
?resize@ScrollData@VScrollWindow@@QAEXPAV2@PAH11@Z           @3727 NONAME
?scroll@ScrollData@VScrollWindow@@QAEXPAV2@JJMM@Z            @3728 NONAME
?setScrollPixelOffsetData@ScrollData@VScrollWindow@@QAEHPAV2@HJ@Z @3729 NONAME
?scrollLine@ScrollData@VScrollWindow@@QAEXPAV2@JJ@Z          @3730 NONAME
?scrollPage@ScrollData@VScrollWindow@@QAEXPAV2@JJ@Z          @3731 NONAME
?scrollHome@ScrollData@VScrollWindow@@QAEXPAV2@HH@Z          @3732 NONAME
?scrollEnd@ScrollData@VScrollWindow@@QAEXPAV2@HH@Z           @3733 NONAME
?scrollPixel@ScrollData@VScrollWindow@@QAEXPAV2@JJ@Z         @3734 NONAME
?scrollRatioTo@ScrollData@VScrollWindow@@QAEHPAV2@MM@Z       @3735 NONAME
?scrollHorizontalRatioTo@ScrollData@VScrollWindow@@QAEHPAV2@M@Z @3736 NONAME
?scrollVerticalRatioTo@ScrollData@VScrollWindow@@QAEHPAV2@M@Z @3737 NONAME
?getScrollPixelData@ScrollData@VScrollWindow@@QAEXPBV2@HJAAJAAH@Z @3738 NONAME
?setMaxViewableWorkArea@ScrollData@VScrollWindow@@QAEXPAV2@H@Z @3739 NONAME
??0UnitDataArray@ScrollData@VScrollWindow@@QAE@XZ            @3740 NONAME
??1UnitDataArray@ScrollData@VScrollWindow@@QAE@XZ            @3741 NONAME
?allocateUnitDataArray@UnitDataArray@ScrollData@VScrollWindow@@IAEHXZ @3742 NONAME
?incrementUnitDataArraySize@UnitDataArray@ScrollData@VScrollWindow@@IAEHXZ @3743 NONAME
?append@UnitDataArray@ScrollData@VScrollWindow@@QAEXHPAX@Z   @3744 NONAME
?prepend@UnitDataArray@ScrollData@VScrollWindow@@QAEXHPAX@Z  @3745 NONAME
?prepend@UnitDataArray@ScrollData@VScrollWindow@@QAEXABV123@@Z @3746 NONAME
?first@UnitDataArray@ScrollData@VScrollWindow@@QAEXHH@Z      @3747 NONAME
?truncate@UnitDataArray@ScrollData@VScrollWindow@@QAEXH@Z    @3748 NONAME
?get@UnitDataArray@ScrollData@VScrollWindow@@QBEAAUUnitData@23@H@Z @3749 NONAME
?find@UnitDataArray@ScrollData@VScrollWindow@@QBEHH@Z        @3750 NONAME
?sumup@UnitDataArray@ScrollData@VScrollWindow@@IAEXXZ        @3751 NONAME
?sum@UnitDataArray@ScrollData@VScrollWindow@@QBEHH@Z         @3752 NONAME
?sum@UnitDataArray@ScrollData@VScrollWindow@@QBEHHH@Z        @3753 NONAME
??0VSemaphore@@QAE@XZ                                        @3754 NONAME
??0VSemaphore@@QAE@H@Z                                       @3755 NONAME
??1VSemaphore@@UAE@XZ                                        @3756 NONAME
?start@VSemaphore@@QAEHXZ                                    @3757 NONAME
?wait@VSemaphore@@QAEHJ@Z                                    @3758 NONAME
?wait@VSemaphore@@QAEXXZ                                     @3759 NONAME
?post@VSemaphore@@QAEXXZ                                     @3760 NONAME
?resetSemaphore@VSemaphore@@QAEHXZ                           @3761 NONAME
?checkSemaphore@VSemaphore@@QAEHXZ                           @3762 NONAME
?VSetVSet@@YAPAXXZ                                           @3763 NONAME
?iam@VSet@@UAEPAVVClass@@XZ                                  @3764 NONAME
??0VSet@@QAE@XZ                                              @3765 NONAME
??0VSet@@QAE@J@Z                                             @3766 NONAME
??0VSet@@QAE@ABV0@@Z                                         @3767 NONAME
?count@VSet@@UBEJXZ                                          @3768 NONAME
?add@VSet@@UAEPAVVObject@@PAV2@@Z                            @3769 NONAME
?start@VSet@@UBEXAAVVIterator@@@Z                            @3770 NONAME
?end@VSet@@UBEXAAVVIterator@@@Z                              @3771 NONAME
?endIterator@VSet@@UBEXAAVVIterator@@@Z                      @3772 NONAME
?next@VSet@@UBEPAVVObject@@AAVVIterator@@@Z                  @3773 NONAME
?prev@VSet@@UBEPAVVObject@@AAVVIterator@@@Z                  @3774 NONAME
?allFollowedBy@VSet@@UBEHAAVVIterator@@@Z                    @3775 NONAME
?allPrecededBy@VSet@@UBEHAAVVIterator@@@Z                    @3776 NONAME
?find@VSet@@UBEPAVVObject@@PBV2@@Z                           @3777 NONAME
?getFrom@VSet@@UAEXAAVVArchiver@@@Z                          @3778 NONAME
?getFrom@VSet@@UAEXAAVVArchiver@@PAVVObject@@H@Z             @3779 NONAME
?putTo@VSet@@UAEXAAVVArchiver@@@Z                            @3780 NONAME
?indexOf@VSet@@QBEJPBVVObject@@@Z                            @3781 NONAME
?replaceSame@VSet@@UAEPAVVObject@@PAV2@0@Z                   @3782 NONAME
?indexOfSame@VSet@@QBEJPBVVObject@@@Z                        @3783 NONAME
?findSame@VSet@@UBEPAVVObject@@PBV2@@Z                       @3784 NONAME
?removeSame@VSet@@UAEPAVVObject@@PAV2@@Z                     @3785 NONAME
?freeContents@VSet@@UAEXXZ                                   @3786 NONAME
?expandTo@VSet@@QAEXJ@Z                                      @3787 NONAME
?reset@VSet@@UAEXXZ                                          @3788 NONAME
?hash@VSet@@UBEJXZ                                           @3789 NONAME
?isEqual@VSet@@UBEHPAVVObject@@@Z                            @3790 NONAME
?copyFrom@VSet@@UAEHPAVVObject@@@Z                           @3791 NONAME
??0VShade@@QAE@XZ                                            @3792 NONAME
??1VShade@@QAE@XZ                                            @3793 NONAME
?setColors@VShade@@QAEXVVColor@@00@Z                         @3794 NONAME
?line@VShade@@QAEXW4lineType@@HHHAAVVPort@@@Z                @3795 NONAME
?panel@VShade@@QAEXW4panelType@@AAVVRectangle@@FAAVVPort@@H@Z @3796 NONAME
?setColors@VShade@@QAEXABVVColor@@PAV2@@Z                    @3797 NONAME
?setDefaultColors@VShade@@QAEXXZ                             @3798 NONAME
?VShadeControlVShadeControl@@YAPAXXZ                         @3799 NONAME
?iam@VShadeControl@@UAEPAVVClass@@XZ                         @3800 NONAME
??0VShadeControl@@QAE@ABVVFrame@@PAVVWindow@@W4ShadeStyle@0@@Z @3801 NONAME
??0VShadeControl@@QAE@XZ                                     @3802 NONAME
??1VShadeControl@@UAE@XZ                                     @3803 NONAME
?isPanel@VShadeControl@@AAEHXZ                               @3804 NONAME
?erased@VShadeControl@@UAEHXZ                                @3805 NONAME
?getMinSize@VShadeControl@@UAEXAAF0@Z                        @3806 NONAME
?paint@VShadeControl@@UAEHXZ                                 @3807 NONAME
?getInfo@VShadeControl@@UAEXAAVVWinInfo@@@Z                  @3808 NONAME
?getInternalBorderGeometry@VShadeControl@@UBEXPAH000@Z       @3809 NONAME
?systemColorChanged@VShadeControl@@UAEXXZ                    @3810 NONAME
?putTo@VShadeControl@@UAEXAAVVArchiver@@@Z                   @3811 NONAME
?putTo@VShadeControl@@AAEXAAVVArchiver@@H@Z                  @3812 NONAME
?getFrom@VShadeControl@@UAEXAAVVArchiver@@@Z                 @3813 NONAME
?getFrom@VShadeControl@@UAEXAAVVArchiver@@PAVVObject@@H@Z    @3814 NONAME
?realize@VShadeControl@@UAEXPAVVWindow@@@Z                   @3815 NONAME
?VStackVStack@@YAPAXXZ                                       @3816 NONAME
?iam@VStack@@UAEPAVVClass@@XZ                                @3817 NONAME
??0VStack@@QAE@XZ                                            @3818 NONAME
?pop@VStack@@QAEPAVVObject@@XZ                               @3819 NONAME
??0VStack@@QAE@ABV0@@Z                                       @3820 NONAME
?VStatusBarVStatusBar@@YAPAXXZ                               @3821 NONAME
?iam@VStatusBar@@UAEPAVVClass@@XZ                            @3822 NONAME
??0VStatusBar@@QAE@XZ                                        @3823 NONAME
??0VStatusBar@@QAE@ABVVFrame@@PAVVWindow@@W4Style@0@@Z       @3824 NONAME
?initialize@VStatusBar@@IAEXXZ                               @3825 NONAME
??1VStatusBar@@UAE@XZ                                        @3826 NONAME
?getSurfaceColor@VStatusBar@@QBE?AVVColor@@XZ                @3827 NONAME
?erased@VStatusBar@@MAEHXZ                                   @3828 NONAME
?paint@VStatusBar@@MAEHXZ                                    @3829 NONAME
?resized@VStatusBar@@MAEHHH@Z                                @3830 NONAME
?frameChildren@VStatusBar@@UAEHHHH@Z                         @3831 NONAME
?createDefaultPanel@VStatusBar@@IAEXH@Z                      @3832 NONAME
?getMinSize@VStatusBar@@UAEXAAF0@Z                           @3833 NONAME
?systemColorChanged@VStatusBar@@MAEXXZ                       @3834 NONAME
?putTo@VStatusBar@@UAEXAAVVArchiver@@@Z                      @3835 NONAME
?putTo@VStatusBar@@IAEXAAVVArchiver@@H@Z                     @3836 NONAME
?getFrom@VStatusBar@@UAEXAAVVArchiver@@@Z                    @3837 NONAME
?getFrom@VStatusBar@@UAEXAAVVArchiver@@PAVVObject@@H@Z       @3838 NONAME
?realize@VStatusBar@@UAEXPAVVWindow@@@Z                      @3839 NONAME
?VStdAppViewVStdAppView@@YAPAXXZ                             @3840 NONAME
?iam@VStdAppView@@UAEPAVVClass@@XZ                           @3841 NONAME
??0VStdAppView@@QAE@ABVVFrame@@HHABVVStyle@@@Z               @3842 NONAME
??0VStdAppView@@QAE@H@Z                                      @3843 NONAME
??0VStdAppView@@QAE@ABVVString@@ABVVFrame@@HHABVVStyle@@@Z   @3844 NONAME
??1VStdAppView@@UAE@XZ                                       @3845 NONAME
??RVStdAppView@@QAEXABVVFrame@@ABVVStyle@@@Z                 @3846 NONAME
??RVStdAppView@@QAEXABVVFrame@@ABVVStyle@@ABVVString@@@Z     @3847 NONAME
?initialize@VStdAppView@@IAEXXZ                              @3848 NONAME
?construct@VStdAppView@@IAEXXZ                               @3849 NONAME
?createMenuBar@VStdAppView@@IAEXXZ                           @3850 NONAME
?createToolBar@VStdAppView@@IAEXH@Z                          @3851 NONAME
?createStatusBar@VStdAppView@@IAEXH@Z                        @3852 NONAME
?createClientArea@VStdAppView@@IAEXXZ                        @3853 NONAME
?isToolBarHidden@VStdAppView@@QBEHXZ                         @3854 NONAME
?isStatusBarHidden@VStdAppView@@QBEHXZ                       @3855 NONAME
?hideStatusBar@VStdAppView@@QAEXH@Z                          @3856 NONAME
?hideToolBar@VStdAppView@@QAEXH@Z                            @3857 NONAME
?displayPrompt@VStdAppView@@UAEHPAVVString@@@Z               @3858 NONAME
?putTo@VStdAppView@@UAEXAAVVArchiver@@@Z                     @3859 NONAME
?putTo@VStdAppView@@IAEXAAVVArchiver@@H@Z                    @3860 NONAME
?getFrom@VStdAppView@@UAEXAAVVArchiver@@@Z                   @3861 NONAME
?getFrom@VStdAppView@@UAEXAAVVArchiver@@PAVVObject@@H@Z      @3862 NONAME
?realize@VStdAppView@@UAEXPAVVWindow@@@Z                     @3863 NONAME
?VStdMdiAppViewVStdMdiAppView@@YAPAXXZ                       @3864 NONAME
?iam@VStdMdiAppView@@UAEPAVVClass@@XZ                        @3865 NONAME
??0VStdMdiAppView@@QAE@H@Z                                   @3866 NONAME
??0VStdMdiAppView@@QAE@ABVVFrame@@HHABVVStyle@@@Z            @3867 NONAME
??0VStdMdiAppView@@QAE@HHHHHHABVVStyle@@@Z                   @3868 NONAME
??0VStdMdiAppView@@QAE@ABVVString@@ABVVFrame@@HHABVVStyle@@@Z @3869 NONAME
??RVStdMdiAppView@@QAEXABVVFrame@@ABVVStyle@@@Z              @3870 NONAME
??RVStdMdiAppView@@QAEXABVVFrame@@ABVVStyle@@HH@Z            @3871 NONAME
??RVStdMdiAppView@@QAEXABVVFrame@@ABVVStyle@@ABVVString@@@Z  @3872 NONAME
??RVStdMdiAppView@@QAEXABVVFrame@@ABVVStyle@@HHABVVString@@@Z @3873 NONAME
??1VStdMdiAppView@@UAE@XZ                                    @3874 NONAME
?initialize@VStdMdiAppView@@IAEXXZ                           @3875 NONAME
?createBars@VStdMdiAppView@@IAEXHH@Z                         @3876 NONAME
?newMenuBar@VStdMdiAppView@@UAEPAVVMenu@@XZ                  @3877 NONAME
?setMenuBar@VStdMdiAppView@@QAEXPAVVMenu@@@Z                 @3878 NONAME
?installMenuAccelerators@VStdMdiAppView@@IAEXPAVVMenu@@@Z    @3879 NONAME
?deinstallMenuAccelerators@VStdMdiAppView@@IAEXPAVVMenu@@@Z  @3880 NONAME
?findWindowMenu@VStdMdiAppView@@IAEPAVVPopupMenu@@PAVVMenu@@@Z @3881 NONAME
?updateMenuBarClients@VStdMdiAppView@@IAEXPAVVMenu@@PAVVStdMdiView@@@Z @3882 NONAME
?findMdiChildControllingMenuBar@VStdMdiAppView@@IAEPAVVStdMdiView@@PAVVMenu@@@Z @3883 NONAME
?newWindowMenu@VStdMdiAppView@@QAEPAVVPopupMenu@@XZ          @3884 NONAME
?selectWindowMenu@VStdMdiAppView@@IAEXPAVVPopupMenu@@@Z      @3885 NONAME
?showOrHideToolBar@VStdMdiAppView@@IAEXXZ                    @3886 NONAME
?showOrHideStatusBar@VStdMdiAppView@@IAEXXZ                  @3887 NONAME
?showToolBar@VStdMdiAppView@@QAEXH@Z                         @3888 NONAME
?showStatusBar@VStdMdiAppView@@QAEXH@Z                       @3889 NONAME
?newToolBar@VStdMdiAppView@@UAEPAVVToolBar@@XZ               @3890 NONAME
?setToolBar@VStdMdiAppView@@QAEXPAVVToolBar@@@Z              @3891 NONAME
?updateToolBarClients@VStdMdiAppView@@IAEXPAVVToolBar@@PAVVStdMdiView@@@Z @3892 NONAME
?findMdiChildControllingToolBar@VStdMdiAppView@@IAEPAVVStdMdiView@@PAVVToolBar@@@Z @3893 NONAME
?newStatusBar@VStdMdiAppView@@UAEPAVVStatusBar@@XZ           @3894 NONAME
?setStatusBar@VStdMdiAppView@@QAEXPAVVStatusBar@@@Z          @3895 NONAME
?updateBars@VStdMdiAppView@@IAEXXZ                           @3896 NONAME
?resetMenuBar@VStdMdiAppView@@IAEXPAVVStdMdiView@@@Z         @3897 NONAME
?childCreated@VStdMdiAppView@@UAEXPAVVStdMdiView@@@Z         @3898 NONAME
?childClosed@VStdMdiAppView@@UAEXPAVVStdMdiView@@H@Z         @3899 NONAME
?childActive@VStdMdiAppView@@UAEXPAVVStdMdiView@@@Z          @3900 NONAME
?erased@VStdMdiAppView@@MAEHXZ                               @3901 NONAME
?displayPrompt@VStdMdiAppView@@UAEHPAVVString@@@Z            @3902 NONAME
?clearStatusBar@VStdMdiAppView@@IAEXPAVVStatusBar@@@Z        @3903 NONAME
?childrenActive@VStdMdiAppView@@UAEXXZ                       @3904 NONAME
?childrenInactive@VStdMdiAppView@@UAEXXZ                     @3905 NONAME
?putTo@VStdMdiAppView@@UAEXAAVVArchiver@@@Z                  @3906 NONAME
?putTo@VStdMdiAppView@@IAEXAAVVArchiver@@H@Z                 @3907 NONAME
?getFrom@VStdMdiAppView@@UAEXAAVVArchiver@@@Z                @3908 NONAME
?getFrom@VStdMdiAppView@@UAEXAAVVArchiver@@PAVVObject@@H@Z   @3909 NONAME
?realize@VStdMdiAppView@@UAEXPAVVWindow@@@Z                  @3910 NONAME
?VStdMdiViewVStdMdiView@@YAPAXXZ                             @3911 NONAME
?iam@VStdMdiView@@UAEPAVVClass@@XZ                           @3912 NONAME
??0VStdMdiView@@QAE@XZ                                       @3913 NONAME
??0VStdMdiView@@QAE@ABVVFrame@@PAVVStdMdiAppView@@ABVVStyle@@@Z @3914 NONAME
??0VStdMdiView@@QAE@ABVVString@@ABVVFrame@@PAVVStdMdiAppView@@ABVVStyle@@@Z @3915 NONAME
?initialize@VStdMdiView@@AAEXXZ                              @3916 NONAME
??1VStdMdiView@@UAE@XZ                                       @3917 NONAME
??RVStdMdiView@@QAEXPBDABVVFrame@@PAVVStdMdiAppView@@ABVVStyle@@PAD@Z @3918 NONAME
??RVStdMdiView@@QAEXPBDABVVFrame@@PAVVStdMdiAppView@@ABVVStyle@@PADABVVString@@@Z @3919 NONAME
?activate@VStdMdiView@@UAEHPAVVView@@@Z                      @3920 NONAME
?deactivate@VStdMdiView@@UAEHPAVVView@@@Z                    @3921 NONAME
?close@VStdMdiView@@MAEHXZ                                   @3922 NONAME
?classActive@VStdMdiView@@UAEXXZ                             @3923 NONAME
?classInactive@VStdMdiView@@UAEXXZ                           @3924 NONAME
?instanceActive@VStdMdiView@@UAEXXZ                          @3925 NONAME
?instanceInactive@VStdMdiView@@UAEXXZ                        @3926 NONAME
?putTo@VStdMdiView@@UAEXAAVVArchiver@@@Z                     @3927 NONAME
?putTo@VStdMdiView@@IAEXAAVVArchiver@@H@Z                    @3928 NONAME
?getFrom@VStdMdiView@@UAEXAAVVArchiver@@@Z                   @3929 NONAME
?getFrom@VStdMdiView@@UAEXAAVVArchiver@@PAVVObject@@H@Z      @3930 NONAME
?realize@VStdMdiView@@UAEXPAVVWindow@@@Z                     @3931 NONAME
?VStringVString@@YAPAXXZ                                     @3932 NONAME
?iam@VString@@UAEPAVVClass@@XZ                               @3933 NONAME
??0VString@@QAE@XZ                                           @3934 NONAME
??0VString@@QAE@PBD@Z                                        @3935 NONAME
??0VString@@QAE@ABV0@@Z                                      @3936 NONAME
??0VString@@QAE@PBDI@Z                                       @3937 NONAME
??0VString@@QAE@PBG@Z                                        @3938 NONAME
??0VString@@QAE@PBGI@Z                                       @3939 NONAME
??1VString@@UAE@XZ                                           @3940 NONAME
?size@VString@@UBEJXZ                                        @3941 NONAME
?getCharSize@VString@@UBEJXZ                                 @3942 NONAME
?putTo@VString@@UAEXAAVVArchiver@@@Z                         @3943 NONAME
?getFrom@VString@@UAEXAAVVArchiver@@@Z                       @3944 NONAME
?getFrom@VString@@UAEXAAVVArchiver@@PAVVObject@@H@Z          @3945 NONAME
?getResource@VString@@QAEHI@Z                                @3946 NONAME
?charIn@VString@@QBEHD@Z                                     @3947 NONAME
?charIn@VString@@QBEHG@Z                                     @3948 NONAME
?charReferenceAt@VString@@IAEABDJ@Z                          @3949 NONAME
?charAt@VString@@QBEDJ@Z                                     @3950 NONAME
?wcharAt@VString@@QBEGJ@Z                                    @3951 NONAME
?compare@VString@@UBEHPAVVObject@@@Z                         @3952 NONAME
?compareVString@VString@@QBEHABV1@@Z                         @3953 NONAME
?compareCStr@VString@@QBEHPBD@Z                              @3954 NONAME
?compareCStr@VString@@QBEHPBG@Z                              @3955 NONAME
?concatTo@VString@@QAEJPAV1@@Z                               @3956 NONAME
?concat@VString@@UAEJPAV1@@Z                                 @3957 NONAME
?concat@VString@@QAEJD@Z                                     @3958 NONAME
?concat@VString@@UAEJPBD@Z                                   @3959 NONAME
?concat@VString@@UAEJPBG@Z                                   @3960 NONAME
?concat@VString@@QAEJG@Z                                     @3961 NONAME
?gets@VString@@UBEPBDXZ                                      @3962 NONAME
?getwcs@VString@@UBEPBGXZ                                    @3963 NONAME
?gets@VString@@QBEJPADJ@Z                                    @3964 NONAME
?virtGets@VString@@MBEJPADJ@Z                                @3965 NONAME
?gets@VString@@QBEJPAGJ@Z                                    @3966 NONAME
?virtGets@VString@@MBEJPAGJ@Z                                @3967 NONAME
?gets@VString@@UBEPADPAD@Z                                   @3968 NONAME
?getTill@VString@@QBEJPADD@Z                                 @3969 NONAME
?hash@VString@@UBEJXZ                                        @3970 NONAME
?isEqual@VString@@UBEHPAVVObject@@@Z                         @3971 NONAME
?expandTo@VString@@UAEXJ@Z                                   @3972 NONAME
?puts@VString@@UAEJPAV1@@Z                                   @3973 NONAME
?puts@VString@@UAEJPBD@Z                                     @3974 NONAME
?write@VString@@UAEJPBDJ@Z                                   @3975 NONAME
?puts@VString@@UAEJPBG@Z                                     @3976 NONAME
?write@VString@@UAEJPBGJ@Z                                   @3977 NONAME
?concatPrints@VString@@QAAJPBDZZ                             @3978 NONAME
?concatPrints@VString@@QAAJPBGZZ                             @3979 NONAME
?println@VString@@QAAJPBDZZ                                  @3980 NONAME
?println@VString@@QAAJPBGZZ                                  @3981 NONAME
?prints@VString@@QAAJPBDZZ                                   @3982 NONAME
?prints@VString@@QAAJPBGZZ                                   @3983 NONAME
?reset@VString@@UAEXXZ                                       @3984 NONAME
?copyFrom@VString@@UAEHPAVVObject@@@Z                        @3985 NONAME
??4VString@@QAEAAV0@D@Z                                      @3986 NONAME
??4VString@@QAEAAV0@G@Z                                      @3987 NONAME
?init@VString@@IAEXXZ                                        @3988 NONAME
?setData@VString@@IAEXPAD@Z                                  @3989 NONAME
?setWideData@VString@@IAEXPAG@Z                              @3990 NONAME
?toLower@VString@@QAEAAV1@XZ                                 @3991 NONAME
?toUpper@VString@@QAEAAV1@XZ                                 @3992 NONAME
??HVString@@QBE?AV0@ABV0@@Z                                  @3993 NONAME
??HVString@@QBE?AV0@D@Z                                      @3994 NONAME
??HVString@@QBE?AV0@G@Z                                      @3995 NONAME
?asByteString@VString@@UBEXH@Z                               @3996 NONAME
?asWideString@VString@@MBEXH@Z                               @3997 NONAME
?swapData@VString@@IAEXAAV1@@Z                               @3998 NONAME
?getWideLineTerm@VString@@IAEPBGXZ                           @3999 NONAME
?identifyFormatConversion@VString@@KAHPBDAAD1AAH2@Z          @4000 NONAME
?identifyFormatConversion@VString@@KAHPBGAAG1AAH2@Z          @4001 NONAME
?measureFormat@VString@@SAJPBDPAD@Z                          @4002 NONAME
?measureFormat@VString@@SAJPBGPAD@Z                          @4003 NONAME
?selectFormatBuffer@VString@@SAPADPADJPAV1@PBD0@Z            @4004 NONAME
?selectFormatBuffer@VString@@SAPAGPAGJPAV1@PBGPAD@Z          @4005 NONAME
?scanTilde@VString@@QAEAAV1@PBD@Z                            @4006 NONAME
?setAt@VString@@QAEXJD@Z                                     @4007 NONAME
?setAt@VString@@QAEXJG@Z                                     @4008 NONAME
?contains@VString@@UBEJPBDJ@Z                                @4009 NONAME
?contains@VString@@QBEJABV1@J@Z                              @4010 NONAME
?contains@VString@@UBEJPBGJ@Z                                @4011 NONAME
?truncAtCharPos@VString@@UAEHJ@Z                             @4012 NONAME
?padTo@VString@@UAEHJD@Z                                     @4013 NONAME
?padTo@VString@@UAEHJG@Z                                     @4014 NONAME
?setCharSize@VString@@QAEXJD@Z                               @4015 NONAME
?setCharSize@VString@@QAEXJG@Z                               @4016 NONAME
?deleteAtCharPos@VString@@UAEHJJ@Z                           @4017 NONAME
?insertAtCharPos@VString@@UAEXABV1@J@Z                       @4018 NONAME
?insertAtCharPos@VString@@QAEXPBDJJD@Z                       @4019 NONAME
?insertAtCharPos@VString@@QAEXPBGJJG@Z                       @4020 NONAME
?insertAtCharPos@VString@@QAEXDJD@Z                          @4021 NONAME
?insertAtCharPos@VString@@QAEXGJG@Z                          @4022 NONAME
?replaceAtCharPos@VString@@QAEXDJD@Z                         @4023 NONAME
?replaceAtCharPos@VString@@QAEXGJG@Z                         @4024 NONAME
?strip@VString@@QAEHXZ                                       @4025 NONAME
?stripTrailing@VString@@QAEHXZ                               @4026 NONAME
?stripLeading@VString@@QAEHXZ                                @4027 NONAME
?VStreamVStream@@YAPAXXZ                                     @4028 NONAME
?iam@VStream@@UAEPAVVClass@@XZ                               @4029 NONAME
??0VStream@@QAE@XZ                                           @4030 NONAME
??0VStream@@QAE@J@Z                                          @4031 NONAME
??0VStream@@QAE@ABVVString@@@Z                               @4032 NONAME
??0VStream@@QAE@ABV0@@Z                                      @4033 NONAME
??4VStream@@QAEAAV0@ABV0@@Z                                  @4034 NONAME
?isEqual@VStream@@UBEHPAVVObject@@@Z                         @4035 NONAME
?hash@VStream@@UBEJXZ                                        @4036 NONAME
?empty@VStream@@UAEHXZ                                       @4037 NONAME
?eof@VStream@@UAEHXZ                                         @4038 NONAME
?at@VStream@@UAEJXZ                                          @4039 NONAME
?getCharPos@VStream@@UBEJXZ                                  @4040 NONAME
?getPos@VStream@@UBEJXZ                                      @4041 NONAME
?reset@VStream@@UAEXXZ                                       @4042 NONAME
?breakAt@VStream@@UAEPAVVObject@@XZ                          @4043 NONAME
?breakAt@VStream@@UAEPAVVObject@@J@Z                         @4044 NONAME
?truncAt@VStream@@UAEHXZ                                     @4045 NONAME
?truncAt@VStream@@UAEHJ@Z                                    @4046 NONAME
?expandTo@VStream@@UAEXJ@Z                                   @4047 NONAME
?expand@VStream@@QAEXXZ                                      @4048 NONAME
?peekch@VStream@@UAEHXZ                                      @4049 NONAME
?peekch@VStream@@UAEHAAG@Z                                   @4050 NONAME
?getch@VStream@@UAEHXZ                                       @4051 NONAME
?getch@VStream@@UAEHAAG@Z                                    @4052 NONAME
?putch@VStream@@UAEHD@Z                                      @4053 NONAME
?putch@VStream@@UAEHG@Z                                      @4054 NONAME
?atGet@VStream@@UAEJJPADJ@Z                                  @4055 NONAME
?atGet@VStream@@UAEJJPAGJ@Z                                  @4056 NONAME
?atPut@VStream@@UAEJJPBDJ@Z                                  @4057 NONAME
?atPut@VStream@@UAEJJPBGJ@Z                                  @4058 NONAME
?ungetch@VStream@@UAEXD@Z                                    @4059 NONAME
?ungetch@VStream@@UAEXG@Z                                    @4060 NONAME
?at@VStream@@UAEJJ@Z                                         @4061 NONAME
?setCharPos@VStream@@UAEJJ@Z                                 @4062 NONAME
?setPos@VStream@@UAEJJ@Z                                     @4063 NONAME
?read@VStream@@UAEJPADJ@Z                                    @4064 NONAME
?read@VStream@@UAEJPAGJ@Z                                    @4065 NONAME
?write@VStream@@UAEJPBDJ@Z                                   @4066 NONAME
?write@VStream@@QAEJABVVString@@@Z                           @4067 NONAME
?write@VStream@@UAEJPBGJ@Z                                   @4068 NONAME
?puts@VStream@@UAEJPAVVString@@@Z                            @4069 NONAME
?puts@VStream@@UAEJPBD@Z                                     @4070 NONAME
?puts@VStream@@UAEJPBG@Z                                     @4071 NONAME
?putln@VStream@@QAEJPBD@Z                                    @4072 NONAME
?putln@VStream@@QAEJPBG@Z                                    @4073 NONAME
?gets@VStream@@UAEJPADJ@Z                                    @4074 NONAME
?gets@VStream@@UAEJPAGJ@Z                                    @4075 NONAME
?gettrim@VStream@@QAEJPADJ@Z                                 @4076 NONAME
?gettrim@VStream@@QAEJPAGJ@Z                                 @4077 NONAME
?getln@VStream@@QAEJPADJ@Z                                   @4078 NONAME
?getln@VStream@@QAEJPAGJ@Z                                   @4079 NONAME
?getFrom@VStream@@UAEXAAVVArchiver@@@Z                       @4080 NONAME
?getFrom@VStream@@UAEXAAVVArchiver@@PAVVObject@@H@Z          @4081 NONAME
?putTo@VStream@@UAEXAAVVArchiver@@@Z                         @4082 NONAME
?skipTo@VStream@@QAEHD@Z                                     @4083 NONAME
?skipTo@VStream@@QAEHG@Z                                     @4084 NONAME
?scanToMatching@VStream@@QAEHDD@Z                            @4085 NONAME
?gets@VStream@@UBEPBDXZ                                      @4086 NONAME
?getwcs@VStream@@UBEPBGXZ                                    @4087 NONAME
?gets@VStream@@UBEPADPAD@Z                                   @4088 NONAME
?copyFrom@VStream@@UAEHPAVVObject@@@Z                        @4089 NONAME
??6VStream@@QAEAAV0@H@Z                                      @4090 NONAME
??6VStream@@QAEAAV0@J@Z                                      @4091 NONAME
??5VStream@@QAEAAV0@ABU_fmtstr@@@Z                           @4092 NONAME
?scan@VStream@@IAA?AU_fmtstr@@PADZZ                          @4093 NONAME
?format@VStream@@IAA?AVVString@@PADZZ                        @4094 NONAME
?truncAtCharPos@VStream@@UAEHJ@Z                             @4095 NONAME
?padTo@VStream@@UAEHJD@Z                                     @4096 NONAME
?padTo@VStream@@UAEHJG@Z                                     @4097 NONAME
?deleteAtCharPos@VStream@@UAEHJJ@Z                           @4098 NONAME
?insertAtCharPos@VStream@@UAEXABVVString@@J@Z                @4099 NONAME
?insertAtCharPos@VStream@@QAEXPBDJJD@Z                       @4100 NONAME
?insertAtCharPos@VStream@@QAEXDJD@Z                          @4101 NONAME
?insertAtCharPos@VStream@@UAEXPBGJJG@Z                       @4102 NONAME
?insertAtCharPos@VStream@@QAEXGJG@Z                          @4103 NONAME
?asByteString@VStream@@UBEXH@Z                               @4104 NONAME
?asWideString@VStream@@MBEXH@Z                               @4105 NONAME
?toElePosition@VStream@@IBEJJ@Z                              @4106 NONAME
?fromElePosition@VStream@@IBEJJPAF@Z                         @4107 NONAME
?VStringTableVStringTable@@YAPAXXZ                           @4108 NONAME
?iam@VStringTable@@UAEPAVVClass@@XZ                          @4109 NONAME
??0VStringTable@@QAE@XZ                                      @4110 NONAME
??1VStringTable@@UAE@XZ                                      @4111 NONAME
?isValidTag@VStringTable@@MAEHPAVVObject@@@Z                 @4112 NONAME
?isValidTag@VStringTable@@SAHABVVString@@@Z                  @4113 NONAME
?get@VStringTable@@QBEHABVVString@@AAV2@@Z                   @4114 NONAME
?put@VStringTable@@QAEHABVVString@@0@Z                       @4115 NONAME
?remove@VStringTable@@QAEHABVVString@@@Z                     @4116 NONAME
?parseString@VStringTable@@SAHAAVVStream@@AAVVString@@@Z     @4117 NONAME
?skipWhitespace@VStringTable@@SAXAAVVStream@@@Z              @4118 NONAME
?importMessage@VStringTable@@MAEXAAVVStream@@@Z              @4119 NONAME
?escapeString@VStringTable@@SAHAAVVStream@@ABVVString@@@Z    @4120 NONAME
?exportMessage@VStringTable@@MBEHAAVVStream@@PAVVObject@@1@Z @4121 NONAME
?canPut@VStringTable@@SAHABVVLocale@@@Z                      @4122 NONAME
?canGet@VStringTable@@SAHABVVLocale@@@Z                      @4123 NONAME
?supports@VStringTable@@MBEHABVVLocale@@@Z                   @4124 NONAME
?putTo@VStringTable@@UAEXAAVVArchiver@@@Z                    @4125 NONAME
?getFrom@VStringTable@@UAEXAAVVArchiver@@@Z                  @4126 NONAME
?getFrom@VStringTable@@UAEXAAVVArchiver@@PAVVObject@@H@Z     @4127 NONAME
?putTo@VStringTable@@QBEHAAVVRscArchiver@@ABVVString@@@Z     @4128 NONAME
?getFrom@VStringTable@@SAPAV1@AAVVRscArchiver@@ABVVString@@H@Z @4129 NONAME
?VStyleVStyle@@YAPAXXZ                                       @4130 NONAME
?iam@VStyle@@UAEPAVVClass@@XZ                                @4131 NONAME
?add@VStyle@@UAEXABV1@@Z                                     @4132 NONAME
?remove@VStyle@@UAEXABV1@@Z                                  @4133 NONAME
?set@VStyle@@UAEXABV1@@Z                                     @4134 NONAME
?contains@VStyle@@UBEHABV1@@Z                                @4135 NONAME
?getFrom@VStyle@@UAEXAAVVArchiver@@@Z                        @4136 NONAME
?putTo@VStyle@@UAEXAAVVArchiver@@@Z                          @4137 NONAME
??H@YA?AVVStyleExpression@@P6AAAV0@AAV0@H@ZABVVStyle@@@Z     @4138 NONAME
??H@YA?AVVStyleExpression@@ABVVStyle@@P6AAAV0@AAV0@H@Z@Z     @4139 NONAME
??G@YA?AVVStyleExpression@@P6AAAV0@AAV0@H@ZABVVStyle@@@Z     @4140 NONAME
??G@YA?AVVStyleExpression@@ABVVStyle@@P6AAAV0@AAV0@H@Z@Z     @4141 NONAME
??H@YA?AVVStyleExpression@@ABVVStyle@@0@Z                    @4142 NONAME
??G@YA?AVVStyleExpression@@ABVVStyle@@0@Z                    @4143 NONAME
?remove@VStyleExpression@@QAEHABVVStyle@@@Z                  @4144 NONAME
?first@VStyleExpression@@QAEPAVVStyle@@XZ                    @4145 NONAME
?next@VStyleExpression@@QAEPAVVStyle@@XZ                     @4146 NONAME
?prev@VStyleExpression@@QAEPAVVStyle@@XZ                     @4147 NONAME
?last@VStyleExpression@@QAEPAVVStyle@@XZ                     @4148 NONAME
?current@VStyleExpression@@QAEPAVVStyle@@XZ                  @4149 NONAME
?evaluate@VStyleExpression@@IAEXXZ                           @4150 NONAME
?getResult@VStyleExpression@@QBEABVVImplicitStyle@@XZ        @4151 NONAME
?getPersistent@VStyleExpression@@QBE?BVVImplicitStyle@@W4StyleOperation@VStyle@@@Z @4152 NONAME
?VSysMenuVSysMenu@@YAPAXXZ                                   @4153 NONAME
?iam@VSysMenu@@UAEPAVVClass@@XZ                              @4154 NONAME
??0VSysMenu@@QAE@XZ                                          @4155 NONAME
??1VSysMenu@@UAE@XZ                                          @4156 NONAME
??0VSysMenu@@QAE@PAVVView@@@Z                                @4157 NONAME
?minSet@VSysMenu@@QAEHH@Z                                    @4158 NONAME
?reset@VSysMenu@@UAEXXZ                                      @4159 NONAME
?set@VSysMenu@@IAEHXZ                                        @4160 NONAME
?VTableModelVTableModel@@YAPAXXZ                             @4161 NONAME
?iam@VTableModel@@UAEPAVVClass@@XZ                           @4162 NONAME
??0VTableModel@@QAE@XZ                                       @4163 NONAME
??1VTableModel@@UAE@XZ                                       @4164 NONAME
?init@VTableModel@@QAEXXZ                                    @4165 NONAME
?getWidth@VTableModel@@UAEJXZ                                @4166 NONAME
?getHeight@VTableModel@@UAEJXZ                               @4167 NONAME
?getColWidth@VTableModel@@UAEHJ@Z                            @4168 NONAME
?getRowHeight@VTableModel@@UAEHJ@Z                           @4169 NONAME
?setRowHeight@VTableModel@@UAEHJH@Z                          @4170 NONAME
?setColWidth@VTableModel@@UAEHJH@Z                           @4171 NONAME
?getColCount@VTableModel@@UAEJXZ                             @4172 NONAME
?getRowCount@VTableModel@@UAEJXZ                             @4173 NONAME
?paintCell@VTableModel@@UAEXPAVVTableView@@JJ@Z              @4174 NONAME
?paintRowLabel@VTableModel@@UAEXPAVVTableView@@J@Z           @4175 NONAME
?paintColLabel@VTableModel@@UAEXPAVVTableView@@J@Z           @4176 NONAME
?hitCell@VTableModel@@UAEXPAVVTableView@@JJ@Z                @4177 NONAME
?hitColumn@VTableModel@@UAEXPAVVTableView@@J@Z               @4178 NONAME
?hitRow@VTableModel@@UAEXPAVVTableView@@J@Z                  @4179 NONAME
?getCellMenu@VTableModel@@UAEPAVVPopupMenu@@PAVVTableView@@JJ@Z @4180 NONAME
?acceptDrag@VTableModel@@UAEHPAVVTableView@@PAVVDragItem@@@Z @4181 NONAME
?acceptOver@VTableModel@@UAEHPAVVTableView@@PAVVDragItem@@JJ@Z @4182 NONAME
?acceptDrop@VTableModel@@UAEHPAVVTableView@@PAVVDragItem@@JJ@Z @4183 NONAME
?getObject@VTableModel@@UAEPAVVObject@@PAVVTableView@@JJ@Z   @4184 NONAME
?VTableSubViewVTableSubView@@YAPAXXZ                         @4185 NONAME
?iam@VTableSubView@@UAEPAVVClass@@XZ                         @4186 NONAME
??0VTableSubView@@QAE@XZ                                     @4187 NONAME
??0VTableSubView@@QAE@PAVVTableModel@@ABVVFrame@@PAVVTableView@@W4VTableSubType@0@H@Z @4188 NONAME
??1VTableSubView@@UAE@XZ                                     @4189 NONAME
?init@VTableSubView@@AAEXPAVVTableModel@@PAVVTableView@@W4VTableSubType@1@@Z @4190 NONAME
?erased@VTableSubView@@EAEHXZ                                @4191 NONAME
?resized@VTableSubView@@EAEHHH@Z                             @4192 NONAME
?drawCellHighlight@VTableSubView@@AAEXJJ@Z                   @4193 NONAME
?updateCell@VTableSubView@@AAEXJJ@Z                          @4194 NONAME
?paint@VTableSubView@@EAEHXZ                                 @4195 NONAME
?mouseEnter@VTableSubView@@EAEHH@Z                           @4196 NONAME
?mouseExit@VTableSubView@@EAEHH@Z                            @4197 NONAME
?mouseMv@VTableSubView@@EAEHHHH@Z                            @4198 NONAME
?mouseDn@VTableSubView@@EAEHHH@Z                             @4199 NONAME
?mouseDbl@VTableSubView@@EAEHHH@Z                            @4200 NONAME
?mouseUp@VTableSubView@@EAEHHH@Z                             @4201 NONAME
?rmouseDn@VTableSubView@@EAEHHH@Z                            @4202 NONAME
?hitTest@VTableSubView@@QAE?AW4HitType@1@HHPAJ0@Z            @4203 NONAME
?key@VTableSubView@@EAEHHD@Z                                 @4204 NONAME
?enterTrack@VTableSubView@@UAEXPAVVWindow@@PAVVDragItem@@@Z  @4205 NONAME
?leaveTrack@VTableSubView@@UAEXPAVVWindow@@PAVVDragItem@@@Z  @4206 NONAME
?inTrack@VTableSubView@@UAEHPAVVWindow@@PAVVDragItem@@HH@Z   @4207 NONAME
?acceptDrag@VTableSubView@@UAEHPAVVWindow@@PAVVDragItem@@@Z  @4208 NONAME
?acceptDrop@VTableSubView@@UAEHPAVVWindow@@PAVVDragItem@@@Z  @4209 NONAME
?hiliteTrack@VTableSubView@@QAEXJJ@Z                         @4210 NONAME
?VTableViewVTableView@@YAPAXXZ                               @4211 NONAME
?iam@VTableView@@UAEPAVVClass@@XZ                            @4212 NONAME
??0VTableView@@QAE@XZ                                        @4213 NONAME
??0VTableView@@QAE@PAVVTableModel@@ABVVFrame@@PAVVWindow@@HHABVVStyle@@H@Z @4214 NONAME
??1VTableView@@UAE@XZ                                        @4215 NONAME
?init@VTableView@@IAEXPAVVTableModel@@HH@Z                   @4216 NONAME
?uponEvent@VTableView@@QAEXPAVVObject@@P82@AEHXZ11@Z         @4217 NONAME
?uponColumnHeaderClick@VTableView@@QAEXPAVVObject@@P82@AEHXZ@Z @4218 NONAME
?uponRowHeaderClick@VTableView@@QAEXPAVVObject@@P82@AEHXZ@Z  @4219 NONAME
?columnHeaderClicked@VTableView@@UAEHH@Z                     @4220 NONAME
?rowHeaderClicked@VTableView@@UAEHH@Z                        @4221 NONAME
?resetSize@VTableView@@QAEXXZ                                @4222 NONAME
?resized@VTableView@@UAEHHH@Z                                @4223 NONAME
?erased@VTableView@@UAEHXZ                                   @4224 NONAME
?paint@VTableView@@UAEHXZ                                    @4225 NONAME
?gotoCell@VTableView@@QAEHJJ@Z                               @4226 NONAME
?dblClickCell@VTableView@@IAEHJJ@Z                           @4227 NONAME
?drawCellHighlight@VTableView@@IAEXJJHH@Z                    @4228 NONAME
?updateCell@VTableView@@QAEXJJ@Z                             @4229 NONAME
?getCellX@VTableView@@IAEJJ@Z                                @4230 NONAME
?getCellY@VTableView@@IAEJJ@Z                                @4231 NONAME
?getVisibleRows@VTableView@@QAEJXZ                           @4232 NONAME
?getVisibleCols@VTableView@@QAEJXZ                           @4233 NONAME
?scrollTable@VTableView@@IAEXJJ@Z                            @4234 NONAME
?updateScrollBars@VTableView@@QAEXXZ                         @4235 NONAME
?vtScrollBar@VTableView@@IAEHJ@Z                             @4236 NONAME
?hzScrollBar@VTableView@@IAEHJ@Z                             @4237 NONAME
?scrollAdjust@VTableView@@IAEHJJ@Z                           @4238 NONAME
?getCellBox@VTableView@@QAEPAVVRectangle@@JJ@Z               @4239 NONAME
?key@VTableView@@UAEHHD@Z                                    @4240 NONAME
?cellEnter@VTableView@@UAEHJJ@Z                              @4241 NONAME
?cellExit@VTableView@@UAEHJJ@Z                               @4242 NONAME
?setTableModel@VTableView@@QAEXPAVVTableModel@@HH@Z          @4243 NONAME
?deselectAllCells@VTableView@@QAEXXZ                         @4244 NONAME
?cellRclicked@VTableView@@UAEXJJHH@Z                         @4245 NONAME
?rowRclicked@VTableView@@UAEXJHH@Z                           @4246 NONAME
?columnRclicked@VTableView@@UAEXJHH@Z                        @4247 NONAME
?uponCellRclicked@VTableView@@QAEXPAVVObject@@P82@AEHXZ@Z    @4248 NONAME
?uponRowRclicked@VTableView@@QAEXPAVVObject@@P82@AEHXZ@Z     @4249 NONAME
?uponColumnRclicked@VTableView@@QAEXPAVVObject@@P82@AEHXZ@Z  @4250 NONAME
?getClassDefaultStyle@VTableView@@SAAAVVStyle@@XZ            @4251 NONAME
?getDefaultStyle@VTableView@@UBEAAVVStyle@@XZ                @4252 NONAME
?realize@VTableView@@UAEXPAVVWindow@@@Z                      @4253 NONAME
?VTagStreamVTagStream@@YAPAXXZ                               @4254 NONAME
?iam@VTagStream@@UAEPAVVClass@@XZ                            @4255 NONAME
??0VTagStream@@QAE@XZ                                        @4256 NONAME
??0VTagStream@@QAE@ABV0@@Z                                   @4257 NONAME
??4VTagStream@@QAEAAV0@ABV0@@Z                               @4258 NONAME
?getTag@VTagStream@@QAEHAAVVString@@@Z                       @4259 NONAME
?putTag@VTagStream@@QAEXIPBVVString@@@Z                      @4260 NONAME
?putTag@VTagStream@@QAEXIABVVString@@@Z                      @4261 NONAME
?putStreamTag@VTagStream@@UAEXIPAVVStream@@@Z                @4262 NONAME
?putTag@VTagStream@@QAEXIPBD@Z                               @4263 NONAME
?ungetTag@VTagStream@@QAEXXZ                                 @4264 NONAME
?doTags@VTagStream@@QAEXIPAVVDictionary@@@Z                  @4265 NONAME
?doTag@VTagStream@@QAEXI@Z                                   @4266 NONAME
?doTag@VTagStream@@QAEXIPAVVString@@@Z                       @4267 NONAME
?doTag@VTagStream@@QAEXIPAVVString@@0@Z                      @4268 NONAME
?reset@VTagStream@@UAEXXZ                                    @4269 NONAME
?putTo@VTagStream@@UAEXAAVVArchiver@@@Z                      @4270 NONAME
?getFrom@VTagStream@@UAEXAAVVArchiver@@@Z                    @4271 NONAME
?getFrom@VTagStream@@UAEXAAVVArchiver@@PAVVObject@@H@Z       @4272 NONAME
?copyFrom@VTagStream@@UAEHPAVVObject@@@Z                     @4273 NONAME
?getStatus@VTagStream@@QAE?AW4TagStatus@@AAH@Z               @4274 NONAME
?VTextBoxVTextBox@@YAPAXXZ                                   @4275 NONAME
?iam@VTextBox@@UAEPAVVClass@@XZ                              @4276 NONAME
??0VTextBox@@QAE@XZ                                          @4277 NONAME
??0VTextBox@@QAE@IPAVVWindow@@@Z                             @4278 NONAME
??0VTextBox@@QAE@ABVVFrame@@PAVVWindow@@ABVVStyle@@PBD@Z     @4279 NONAME
??0VTextBox@@QAE@ABVVString@@ABVVFrame@@PAVVWindow@@ABVVStyle@@PBD@Z @4280 NONAME
??1VTextBox@@UAE@XZ                                          @4281 NONAME
?getInfo@VTextBox@@MAEXAAVVWinInfo@@@Z                       @4282 NONAME
?getCtlColor@VTextBox@@MAEIXZ                                @4283 NONAME
?align@VTextBox@@QAEXW4Alignment@@@Z                         @4284 NONAME
?align@VTextBox@@QAE?AW4Alignment@@XZ                        @4285 NONAME
?getMinSize@VTextBox@@MAEXAAF0@Z                             @4286 NONAME
?getMin@VTextBox@@QAEXPAH0@Z                                 @4287 NONAME
?getPreferredSize@VTextBox@@UBEXPAH0@Z                       @4288 NONAME
?takeFocus@VTextBox@@UAEHXZ                                  @4289 NONAME
?resized@VTextBox@@UAEHHH@Z                                  @4290 NONAME
?sizeOf@VTextBox@@UAEXPAH0@Z                                 @4291 NONAME
?winType@VTextBox@@UAE?AW4WinType@@XZ                        @4292 NONAME
?putTo@VTextBox@@UAEXAAVVArchiver@@@Z                        @4293 NONAME
?putTo@VTextBox@@IAEXAAVVArchiver@@H@Z                       @4294 NONAME
?getFrom@VTextBox@@UAEXAAVVArchiver@@@Z                      @4295 NONAME
?getFrom@VTextBox@@UAEXAAVVArchiver@@PAVVObject@@H@Z         @4296 NONAME
?realize@VTextBox@@UAEXPAVVWindow@@@Z                        @4297 NONAME
?VTextEditorVTextEditor@@YAPAXXZ                             @4298 NONAME
?iam@VTextEditor@@UAEPAVVClass@@XZ                           @4299 NONAME
??0VTextEditor@@QAE@XZ                                       @4300 NONAME
??0VTextEditor@@QAE@IPAVVWindow@@@Z                          @4301 NONAME
??0VTextEditor@@QAE@ABVVFrame@@PAVVWindow@@ABVVStyle@@@Z     @4302 NONAME
??0VTextEditor@@QAE@ABVVString@@ABVVFrame@@PAVVWindow@@ABVVStyle@@@Z @4303 NONAME
??1VTextEditor@@UAE@XZ                                       @4304 NONAME
?stdSearchMenu@VTextEditor@@QAEPAVVPopupMenu@@XZ             @4305 NONAME
?find@VTextEditor@@QAEHPAVVMenuItem@@@Z                      @4306 NONAME
?findNext@VTextEditor@@QAEJPAVVMenuItem@@@Z                  @4307 NONAME
?replaceAll@VTextEditor@@QAEHPAVVMenuItem@@@Z                @4308 NONAME
?editText@VTextEditor@@QAEXPAVVString@@@Z                    @4309 NONAME
?editedText@VTextEditor@@QAEIPAVVString@@@Z                  @4310 NONAME
?getTextSize@VTextEditor@@QAEIXZ                             @4311 NONAME
?findText@VTextEditor@@QAEJPAD@Z                             @4312 NONAME
?replace@VTextEditor@@QAEHPAD@Z                              @4313 NONAME
?lineLength@VTextEditor@@QAEIH@Z                             @4314 NONAME
?lineIndex@VTextEditor@@QAEJH@Z                              @4315 NONAME
?putTo@VTextEditor@@UAEXAAVVArchiver@@@Z                     @4316 NONAME
?putTo@VTextEditor@@IAEXAAVVArchiver@@H@Z                    @4317 NONAME
?getFrom@VTextEditor@@UAEXAAVVArchiver@@@Z                   @4318 NONAME
?getFrom@VTextEditor@@UAEXAAVVArchiver@@PAVVObject@@H@Z      @4319 NONAME
?realize@VTextEditor@@UAEXPAVVWindow@@@Z                     @4320 NONAME
??0VTime@@QAE@H@Z                                            @4321 NONAME
??0VTime@@QAE@HHH@Z                                          @4322 NONAME
??0VTime@@QAE@PBUtm@@@Z                                      @4323 NONAME
?set@VTime@@QAEXXZ                                           @4324 NONAME
?set@VTime@@QAEXHHH@Z                                        @4325 NONAME
?set@VTime@@QAEXPBUtm@@@Z                                    @4326 NONAME
?setHour@VTime@@QAEXH@Z                                      @4327 NONAME
?setMinute@VTime@@QAEXH@Z                                    @4328 NONAME
?setSecond@VTime@@QAEXH@Z                                    @4329 NONAME
?getHour@VTime@@QBEHXZ                                       @4330 NONAME
?getMinute@VTime@@QBEHXZ                                     @4331 NONAME
?getSecond@VTime@@QBEHXZ                                     @4332 NONAME
?getTm@VTime@@QBEXPAUtm@@@Z                                  @4333 NONAME
?getHourString@VTime@@QAEXAAVVString@@H@Z                    @4334 NONAME
?getMinuteString@VTime@@QAEXAAVVString@@H@Z                  @4335 NONAME
?getSecondString@VTime@@QAEXAAVVString@@H@Z                  @4336 NONAME
?getString@VTime@@QAEXAAVVString@@PBD@Z                      @4337 NONAME
?addHours@VTime@@QAEXH@Z                                     @4338 NONAME
?addMinutes@VTime@@QAEXH@Z                                   @4339 NONAME
?addSeconds@VTime@@QAEXH@Z                                   @4340 NONAME
?plusHours@VTime@@QBE?AV1@H@Z                                @4341 NONAME
?plusMinutes@VTime@@QBE?AV1@H@Z                              @4342 NONAME
?plusSeconds@VTime@@QBE?AV1@H@Z                              @4343 NONAME
?VTimerVTimer@@YAPAXXZ                                       @4344 NONAME
?iam@VTimer@@UAEPAVVClass@@XZ                                @4345 NONAME
??0VTimer@@QAE@XZ                                            @4346 NONAME
??0VTimer@@QAE@PAVVObject@@P81@AEHXZ@Z                       @4347 NONAME
??1VTimer@@UAE@XZ                                            @4348 NONAME
?timing@VTimer@@QAEHXZ                                       @4349 NONAME
?oneshot@VTimer@@QAEHI@Z                                     @4350 NONAME
?pause@VTimer@@QAEXXZ                                        @4351 NONAME
?restart@VTimer@@QAEHXZ                                      @4352 NONAME
?resume@VTimer@@QAEHXZ                                       @4353 NONAME
?uponTimeout@VTimer@@QAEXPAVVObject@@P82@AEHXZ@Z             @4354 NONAME
?start@VTimer@@QAEHI@Z                                       @4355 NONAME
?stop@VTimer@@QAEXXZ                                         @4356 NONAME
?timerExpired@VTimer@@QAEHXZ                                 @4357 NONAME
?init@VTimer@@IAEXXZ                                         @4358 NONAME
?VTimeZoneVTimeZone@@YAPAXXZ                                 @4359 NONAME
?iam@VTimeZone@@UAEPAVVClass@@XZ                             @4360 NONAME
??0VTimeZone@@QAE@HPAVVOrdCollect@@@Z                        @4361 NONAME
??1VTimeZone@@UAE@XZ                                         @4362 NONAME
?construct@VTimeZone@@IAEXHPAVVOrdCollect@@@Z                @4363 NONAME
?getName@VTimeZone@@UBEXAAVVString@@HH@Z                     @4364 NONAME
?getMinutesFromGMT@VTimeZone@@UBEHH@Z                        @4365 NONAME
?hasDST@VTimeZone@@UBEHXZ                                    @4366 NONAME
?isDST@VTimeZone@@UBEHABVVDateTime@@@Z                       @4367 NONAME
?getBeginDST@VTimeZone@@UBEHFAAVVDateTime@@@Z                @4368 NONAME
?getEndDST@VTimeZone@@UBEHFAAVVDateTime@@@Z                  @4369 NONAME
?setupDST@VTimeZone@@MAEXXZ                                  @4370 NONAME
?addToDST@VTimeZone@@IAEXHHHHABVVTime@@HH0@Z                 @4371 NONAME
?addToDST@VTimeZone@@IAEXHHHHHABVVTime@@HHH0@Z               @4372 NONAME
?copyDST@VTimeZone@@KAPAVVOrdCollect@@PAV2@@Z                @4373 NONAME
?determineLocalMinutesFromGMT@VTimeZone@@MBEHXZ              @4374 NONAME
??0VTimeZone@@QAE@ABV0@@Z                                    @4375 NONAME
??4VTimeZone@@QAEAAV0@ABV0@@Z                                @4376 NONAME
?local@VTimeZone@@SAAAV1@H@Z                                 @4377 NONAME
?gmt@VTimeZone@@SAAAV1@XZ                                    @4378 NONAME
?putTo@VTimeZone@@UAEXAAVVArchiver@@@Z                       @4379 NONAME
?getFrom@VTimeZone@@UAEXAAVVArchiver@@@Z                     @4380 NONAME
?getFrom@VTimeZone@@UAEXAAVVArchiver@@PAVVObject@@H@Z        @4381 NONAME
?VDSTVDST@@YAPAXXZ                                           @4382 NONAME
?iam@VDST@@EAEPAVVClass@@XZ                                  @4383 NONAME
??0VDST@@QAE@XZ                                              @4384 NONAME
??0VDST@@AAE@HHHHABVVTime@@HH0@Z                             @4385 NONAME
??0VDST@@AAE@HHHHHABVVTime@@HHH0@Z                           @4386 NONAME
??0VDST@@AAE@ABV0@@Z                                         @4387 NONAME
?getBeginDateTime@VDST@@ABEXHAAVVDateTime@@@Z                @4388 NONAME
?getEndDateTime@VDST@@ABEXHAAVVDateTime@@@Z                  @4389 NONAME
?putTo@VDST@@EAEXAAVVArchiver@@@Z                            @4390 NONAME
?getFrom@VDST@@EAEXAAVVArchiver@@@Z                          @4391 NONAME
?getFrom@VDST@@EAEXAAVVArchiver@@PAVVObject@@H@Z             @4392 NONAME
?VToFromStreamVToFromStream@@YAPAXXZ                         @4393 NONAME
?iam@VToFromStream@@UAEPAVVClass@@XZ                         @4394 NONAME
??0VToFromStream@@QAE@XZ                                     @4395 NONAME
??0VToFromStream@@QAE@PAVVStream@@0@Z                        @4396 NONAME
?scan@VToFromStream@@QAEXPAVVStream@@0@Z                     @4397 NONAME
?getch@VToFromStream@@UAEHXZ                                 @4398 NONAME
?ungetch@VToFromStream@@UAEXD@Z                              @4399 NONAME
?read@VToFromStream@@UAEJPADJ@Z                              @4400 NONAME
?putch@VToFromStream@@UAEHD@Z                                @4401 NONAME
?peekch@VToFromStream@@UAEHXZ                                @4402 NONAME
?write@VToFromStream@@UAEJPBDJ@Z                             @4403 NONAME
?reset@VToFromStream@@UAEXXZ                                 @4404 NONAME
?putTo@VToFromStream@@UAEXAAVVArchiver@@@Z                   @4405 NONAME
?getFrom@VToFromStream@@UAEXAAVVArchiver@@@Z                 @4406 NONAME
?getFrom@VToFromStream@@UAEXAAVVArchiver@@PAVVObject@@H@Z    @4407 NONAME
?copyFrom@VToFromStream@@UAEHPAVVObject@@@Z                  @4408 NONAME
??0VToFromStream@@QAE@ABV0@@Z                                @4409 NONAME
??4VToFromStream@@QAEAAV0@ABV0@@Z                            @4410 NONAME
?getch@VToFromStream@@UAEHAAG@Z                              @4411 NONAME
?ungetch@VToFromStream@@UAEXG@Z                              @4412 NONAME
?putch@VToFromStream@@UAEHG@Z                                @4413 NONAME
?peekch@VToFromStream@@UAEHAAG@Z                             @4414 NONAME
?read@VToFromStream@@UAEJPAGJ@Z                              @4415 NONAME
?write@VToFromStream@@UAEJPBGJ@Z                             @4416 NONAME
?VTokensVTokens@@YAPAXXZ                                     @4417 NONAME
?iam@VTokens@@UAEPAVVClass@@XZ                               @4418 NONAME
?useTokens@VTokens@@QAEXXZ                                   @4419 NONAME
??0VTokens@@QAE@XZ                                           @4420 NONAME
?init@VTokens@@IAEXXZ                                        @4421 NONAME
?setDefault@VTokens@@QAEXXZ                                  @4422 NONAME
?reset@VTokens@@UAEXXZ                                       @4423 NONAME
?add@VTokens@@QAAHHHZZ                                       @4424 NONAME
?add@VTokens@@QAEHHPAVVString@@@Z                            @4425 NONAME
?add@VTokens@@QAEHHPBD@Z                                     @4426 NONAME
?add@VTokens@@QAEHH@Z                                        @4427 NONAME
?remove@VTokens@@QAAXHHZZ                                    @4428 NONAME
?remove@VTokens@@QAEHH@Z                                     @4429 NONAME
??1VTokens@@UAE@XZ                                           @4430 NONAME
?clean@VTokens@@IAEXXZ                                       @4431 NONAME
?copyFrom@VTokens@@UAEHPAVVObject@@@Z                        @4432 NONAME
?getKey@VTokens@@IAEHPAD@Z                                   @4433 NONAME
?getKey@VTokens@@IAEHPAG@Z                                   @4434 NONAME
??0VTokens@@QAE@ABV0@@Z                                      @4435 NONAME
?tokenOf@VTokens@@QAEHIPAD@Z                                 @4436 NONAME
?tokenOf@VTokens@@QAEHIPAG@Z                                 @4437 NONAME
?VTokenStreamVTokenStream@@YAPAXXZ                           @4438 NONAME
?iam@VTokenStream@@UAEPAVVClass@@XZ                          @4439 NONAME
?reset@VTokenStream@@UAEXXZ                                  @4440 NONAME
?useTokens@VTokenStream@@QAEXPAVVTokens@@@Z                  @4441 NONAME
??0VTokenStream@@QAE@ABV0@@Z                                 @4442 NONAME
??0VTokenStream@@QAE@XZ                                      @4443 NONAME
??4VTokenStream@@QAEAAV0@ABV0@@Z                             @4444 NONAME
??1VTokenStream@@UAE@XZ                                      @4445 NONAME
?isnum@VTokenStream@@IAEHPADH@Z                              @4446 NONAME
?isnum@VTokenStream@@IAEHPAGH@Z                              @4447 NONAME
?getToken@VTokenStream@@UAEHXZ                               @4448 NONAME
?getToken@VTokenStream@@UAEHAAVVString@@@Z                   @4449 NONAME
?putTo@VTokenStream@@UAEXAAVVArchiver@@@Z                    @4450 NONAME
?getFrom@VTokenStream@@UAEXAAVVArchiver@@@Z                  @4451 NONAME
?getFrom@VTokenStream@@UAEXAAVVArchiver@@PAVVObject@@H@Z     @4452 NONAME
?copyFrom@VTokenStream@@UAEHPAVVObject@@@Z                   @4453 NONAME
?VToolBarVToolBar@@YAPAXXZ                                   @4454 NONAME
?iam@VToolBar@@UAEPAVVClass@@XZ                              @4455 NONAME
??0VToolBar@@QAE@XZ                                          @4456 NONAME
??0VToolBar@@QAE@ABVVFrame@@PAVVWindow@@ABVVStyle@@@Z        @4457 NONAME
??0VToolBar@@QAE@PAVVWindow@@ABVVStyle@@@Z                   @4458 NONAME
??0VToolBar@@QAE@ABVVString@@ABVVFrame@@PAVVWindow@@ABVVStyle@@@Z @4459 NONAME
??0VToolBar@@QAE@ABVVString@@PAVVWindow@@ABVVStyle@@@Z       @4460 NONAME
??1VToolBar@@UAE@XZ                                          @4461 NONAME
?setRow@VToolBar@@QAEXXZ                                     @4462 NONAME
?setColumn@VToolBar@@QAEXXZ                                  @4463 NONAME
?isRow@VToolBar@@QBEHXZ                                      @4464 NONAME
?isColumn@VToolBar@@QBEHXZ                                   @4465 NONAME
?setWrapping@VToolBar@@QAEXH@Z                               @4466 NONAME
?getWrapping@VToolBar@@QBEHXZ                                @4467 NONAME
?setSpacing@VToolBar@@QAEXHH@Z                               @4468 NONAME
?getSpacing@VToolBar@@QBEHXZ                                 @4469 NONAME
?setMinorSpacing@VToolBar@@QAEXH@Z                           @4470 NONAME
?getMinorSpacing@VToolBar@@QBEHXZ                            @4471 NONAME
?setShadeStyle@VToolBar@@QAEXH@Z                             @4472 NONAME
?beginGroup@VToolBar@@QAEPAVVGeoRowOrColumn@@HH@Z            @4473 NONAME
?addChild@VToolBar@@MAEXPAVVWindow@@@Z                       @4474 NONAME
?endGroup@VToolBar@@QAEXXZ                                   @4475 NONAME
?setGroupSpacing@VToolBar@@QAEXHH@Z                          @4476 NONAME
?getGroupSpacing@VToolBar@@QBEHXZ                            @4477 NONAME
?setMinorGroupSpacing@VToolBar@@QAEXH@Z                      @4478 NONAME
?getMinorGroupSpacing@VToolBar@@QBEHXZ                       @4479 NONAME
?addSeparator@VToolBar@@QAEXH@Z                              @4480 NONAME
?addSpace@VToolBar@@QAEXH@Z                                  @4481 NONAME
?setMargins@VToolBar@@QAEXH@Z                                @4482 NONAME
?setMargins@VToolBar@@QAEXHH@Z                               @4483 NONAME
?setMargins@VToolBar@@QAEXHHHH@Z                             @4484 NONAME
?getMargins@VToolBar@@QAEXPAH000@Z                           @4485 NONAME
?initialize@VToolBar@@IAEXH@Z                                @4486 NONAME
?construct@VToolBar@@IAEXXZ                                  @4487 NONAME
?setupManager@VToolBar@@IAEXPAVVClass@@@Z                    @4488 NONAME
?constructStaticData@VToolBar@@KAXXZ                         @4489 NONAME
?deleteStaticData@VToolBar@@KAXXZ                            @4490 NONAME
?getInternalBorderGeometry@VToolBar@@MBEXPAH000@Z            @4491 NONAME
?paint@VToolBar@@MAEHXZ                                      @4492 NONAME
?enableBool@VToolBar@@UAEXH@Z                                @4493 NONAME
?updateGeometry@VToolBar@@UAEXH@Z                            @4494 NONAME
?getPreferredSize@VToolBar@@MBEXPAH0@Z                       @4495 NONAME
?getDefaultStyle@VToolBar@@UBEAAVVStyle@@XZ                  @4496 NONAME
?getClassDefaultStyle@VToolBar@@SAAAVVStyle@@XZ              @4497 NONAME
??0VToolBar@@QAE@ABVVFrame@@PAVVWindow@@H@Z                  @4498 NONAME
??0VToolBar@@QAE@ABVVString@@ABVVFrame@@PAVVWindow@@H@Z      @4499 NONAME
?setAutoPlace@VToolBar@@QAEXHF@Z                             @4500 NONAME
?newSeparator@VToolBar@@QAEPAVVSeparator@@H@Z                @4501 NONAME
?putTo@VToolBar@@UAEXAAVVArchiver@@@Z                        @4502 NONAME
?putTo@VToolBar@@IAEXAAVVArchiver@@H@Z                       @4503 NONAME
?getFrom@VToolBar@@UAEXAAVVArchiver@@@Z                      @4504 NONAME
?getFrom@VToolBar@@UAEXAAVVArchiver@@PAVVObject@@H@Z         @4505 NONAME
?realize@VToolBar@@UAEXPAVVWindow@@@Z                        @4506 NONAME
?VToolBoxVToolBox@@YAPAXXZ                                   @4507 NONAME
?iam@VToolBox@@UAEPAVVClass@@XZ                              @4508 NONAME
??0VToolBox@@QAE@XZ                                          @4509 NONAME
??0VToolBox@@QAE@ABVVFrame@@PAVVWindow@@ABVVStyle@@@Z        @4510 NONAME
??0VToolBox@@QAE@PAVVWindow@@ABVVStyle@@@Z                   @4511 NONAME
??1VToolBox@@UAE@XZ                                          @4512 NONAME
?initialize@VToolBox@@IAEXXZ                                 @4513 NONAME
?construct@VToolBox@@IAEXXZ                                  @4514 NONAME
?VTransparentWindowVTransparentWindow@@YAPAXXZ               @4515 NONAME
?iam@VTransparentWindow@@UAEPAVVClass@@XZ                    @4516 NONAME
??0VTransparentWindow@@QAE@XZ                                @4517 NONAME
??0VTransparentWindow@@QAE@ABVVFrame@@PAVVWindow@@ABVVStyle@@@Z @4518 NONAME
??0VTransparentWindow@@QAE@ABVVString@@ABVVFrame@@PAVVWindow@@ABVVStyle@@@Z @4519 NONAME
??1VTransparentWindow@@UAE@XZ                                @4520 NONAME
?erased@VTransparentWindow@@MAEHXZ                           @4521 NONAME
?winType@VTransparentWindow@@MAE?AW4WinType@@XZ              @4522 NONAME
?getInfo@VTransparentWindow@@MAEXAAVVWinInfo@@@Z             @4523 NONAME
?VTreeNodeVTreeNode@@YAPAXXZ                                 @4524 NONAME
?iam@VTreeNode@@UAEPAVVClass@@XZ                             @4525 NONAME
??0VTreeNode@@QAE@XZ                                         @4526 NONAME
??0VTreeNode@@QAE@ABVVString@@PAVVObject@@@Z                 @4527 NONAME
??1VTreeNode@@UAE@XZ                                         @4528 NONAME
?setChildIndentLevel@VTreeNode@@KAXPAV1@H@Z                  @4529 NONAME
?addChild@VTreeNode@@AAEHPAV1@0@Z                            @4530 NONAME
?removeChild@VTreeNode@@AAEXPAV1@@Z                          @4531 NONAME
?putTo@VTreeNode@@UAEXAAVVArchiver@@@Z                       @4532 NONAME
?getFrom@VTreeNode@@UAEXAAVVArchiver@@@Z                     @4533 NONAME
?getFrom@VTreeNode@@UAEXAAVVArchiver@@PAVVObject@@H@Z        @4534 NONAME
?VTriStateVTriState@@YAPAXXZ                                 @4535 NONAME
?iam@VTriState@@UAEPAVVClass@@XZ                             @4536 NONAME
??1VTriState@@UAE@XZ                                         @4537 NONAME
??0VTriState@@QAE@XZ                                         @4538 NONAME
??0VTriState@@QAE@IPAVVWindow@@@Z                            @4539 NONAME
??0VTriState@@QAE@VVRatio@@0PADPAVVWindow@@ABVVStyle@@@Z     @4540 NONAME
??0VTriState@@QAE@ABVVFrame@@PAVVWindow@@ABVVStyle@@PAD@Z    @4541 NONAME
??0VTriState@@QAE@ABVVString@@ABVVFrame@@PAVVWindow@@ABVVStyle@@PAD@Z @4542 NONAME
?getInfo@VTriState@@MAEXAAVVWinInfo@@@Z                      @4543 NONAME
?enabled@VTriState@@QAEHXZ                                   @4544 NONAME
?checked@VTriState@@UAEHXZ                                   @4545 NONAME
?enable@VTriState@@UAEHH@Z                                   @4546 NONAME
?toggle@VTriState@@UAEHXZ                                    @4547 NONAME
?putTo@VTriState@@UAEXAAVVArchiver@@@Z                       @4548 NONAME
?putTo@VTriState@@QAEXAAVVArchiver@@H@Z                      @4549 NONAME
?getFrom@VTriState@@UAEXAAVVArchiver@@@Z                     @4550 NONAME
?getFrom@VTriState@@UAEXAAVVArchiver@@PAVVObject@@H@Z        @4551 NONAME
?realize@VTriState@@UAEXPAVVWindow@@@Z                       @4552 NONAME
??0VTimeZoneUS@@QAE@HPAVVOrdCollect@@@Z                      @4553 NONAME
??1VTimeZoneUS@@UAE@XZ                                       @4554 NONAME
?getName@VTimeZoneUS@@UBEXAAVVString@@HH@Z                   @4555 NONAME
?setupDST@VTimeZoneUS@@MAEXXZ                                @4556 NONAME
?VUserControlVUserControl@@YAPAXXZ                           @4557 NONAME
?iam@VUserControl@@UAEPAVVClass@@XZ                          @4558 NONAME
??0VUserControl@@QAE@XZ                                      @4559 NONAME
??1VUserControl@@UAE@XZ                                      @4560 NONAME
?paint@VUserControl@@UAEHXZ                                  @4561 NONAME
?putTo@VUserControl@@UAEXAAVVArchiver@@@Z                    @4562 NONAME
?putTo@VUserControl@@IAEXAAVVArchiver@@H@Z                   @4563 NONAME
?getFrom@VUserControl@@UAEXAAVVArchiver@@@Z                  @4564 NONAME
?getFrom@VUserControl@@UAEXAAVVArchiver@@PAVVObject@@H@Z     @4565 NONAME
?realize@VUserControl@@UAEXPAVVWindow@@@Z                    @4566 NONAME
?loadResources@VUserControl@@UAEHAAVVRscArchiver@@@Z         @4567 NONAME
?VUtilityWindowVUtilityWindow@@YAPAXXZ                       @4568 NONAME
?iam@VUtilityWindow@@UAEPAVVClass@@XZ                        @4569 NONAME
??0VUtilityWindow@@QAE@XZ                                    @4570 NONAME
??0VUtilityWindow@@QAE@ABVVFrame@@PAVVWindow@@ABVVStyle@@@Z  @4571 NONAME
??0VUtilityWindow@@QAE@PAVVWindow@@ABVVStyle@@@Z             @4572 NONAME
??0VUtilityWindow@@QAE@ABVVString@@ABVVFrame@@PAVVWindow@@ABVVStyle@@@Z @4573 NONAME
??0VUtilityWindow@@QAE@ABVVString@@PAVVWindow@@ABVVStyle@@@Z @4574 NONAME
??RVUtilityWindow@@QAEXABVVFrame@@PAVVWindow@@@Z             @4575 NONAME
??RVUtilityWindow@@QAEXABVVFrame@@PAVVWindow@@ABVVStyle@@@Z  @4576 NONAME
??RVUtilityWindow@@QAEXABVVFrame@@PAVVWindow@@ABVVStyle@@ABVVString@@@Z @4577 NONAME
??1VUtilityWindow@@UAE@XZ                                    @4578 NONAME
?getClassDefaultStyle@VUtilityWindow@@SAAAVVStyle@@XZ        @4579 NONAME
?getDefaultStyle@VUtilityWindow@@UBEAAVVStyle@@XZ            @4580 NONAME
?getInfo@VUtilityWindow@@MAEXAAVVWinInfo@@@Z                 @4581 NONAME
?setTitle@VUtilityWindow@@QAEXABVVString@@@Z                 @4582 NONAME
?getTitle@VUtilityWindow@@QBEXAAVVString@@@Z                 @4583 NONAME
?setCloseBehavior@VUtilityWindow@@QAEXH@Z                    @4584 NONAME
?setMovingStyle@VUtilityWindow@@QAEXH@Z                      @4585 NONAME
?setResizingStyle@VUtilityWindow@@QAEXH@Z                    @4586 NONAME
?setOpaqueResizing@VUtilityWindow@@QAEXH@Z                   @4587 NONAME
?setOpaqueMoving@VUtilityWindow@@QAEXH@Z                     @4588 NONAME
?uponBeginMoving@VUtilityWindow@@QAEXPAVVObject@@P82@AEHXZ@Z @4589 NONAME
?uponMoving@VUtilityWindow@@QAEXPAVVObject@@P82@AEHXZ@Z      @4590 NONAME
?uponEndMoving@VUtilityWindow@@QAEXPAVVObject@@P82@AEHXZ@Z   @4591 NONAME
?uponBeginResizing@VUtilityWindow@@QAEXPAVVObject@@P82@AEHXZ@Z @4592 NONAME
?uponResizing@VUtilityWindow@@QAEXPAVVObject@@P82@AEHXZ@Z    @4593 NONAME
?uponEndResizing@VUtilityWindow@@QAEXPAVVObject@@P82@AEHXZ@Z @4594 NONAME
?uponMouseDbl@VUtilityWindow@@QAEXPAVVObject@@P82@AEHXZ@Z    @4595 NONAME
?uponRmouseDn@VUtilityWindow@@QAEXPAVVObject@@P82@AEHXZ@Z    @4596 NONAME
?uponClose@VUtilityWindow@@QAEXPAVVObject@@P82@AEHXZ@Z       @4597 NONAME
?beginMoving@VUtilityWindow@@MAEHXZ                          @4598 NONAME
?moving@VUtilityWindow@@MAEHAAH000HH@Z                       @4599 NONAME
?endMoving@VUtilityWindow@@MAEHHHHHHHAAH@Z                   @4600 NONAME
?beginResizing@VUtilityWindow@@MAEHXZ                        @4601 NONAME
?resizing@VUtilityWindow@@MAEHHHAAH0H@Z                      @4602 NONAME
?endResizing@VUtilityWindow@@MAEHHHHHHAAH@Z                  @4603 NONAME
?close@VUtilityWindow@@MAEHXZ                                @4604 NONAME
?resizeClientArea@VUtilityWindow@@UAEXHH@Z                   @4605 NONAME
?stdSize@VUtilityWindow@@SAXABVVStyle@@PAH1@Z                @4606 NONAME
?getSystemBorderSize@VUtilityWindow@@UBEXPAH0@Z              @4607 NONAME
?getInternalBorderGeometry@VUtilityWindow@@UBEXPAH000@Z      @4608 NONAME
?getMinimumSize@VUtilityWindow@@MBEXPAH0@Z                   @4609 NONAME
?initialize@VUtilityWindow@@IAEXXZ                           @4610 NONAME
?setupMetrics@VUtilityWindow@@IAEXXZ                         @4611 NONAME
?construct@VUtilityWindow@@IAEXXZ                            @4612 NONAME
?newClientWindow@VUtilityWindow@@IAEPAVVWindow@@PAV2@@Z      @4613 NONAME
?initializeOpaqueMoveResize@VUtilityWindow@@IAEXXZ           @4614 NONAME
?constructStaticData@VUtilityWindow@@KAXXZ                   @4615 NONAME
?deleteStaticData@VUtilityWindow@@KAXH@Z                     @4616 NONAME
?constructStaticColors@VUtilityWindow@@KAXXZ                 @4617 NONAME
?constructStaticFonts@VUtilityWindow@@KAXXZ                  @4618 NONAME
?deleteStaticFonts@VUtilityWindow@@KAXXZ                     @4619 NONAME
?setDisableDecorations@VUtilityWindow@@QAEXH@Z               @4620 NONAME
?supportsStyleWindows95@VUtilityWindow@@SAHXZ                @4621 NONAME
?supportsStyleWindows31@VUtilityWindow@@SAHXZ                @4622 NONAME
?supportsStyleOs2@VUtilityWindow@@SAHXZ                      @4623 NONAME
?supportsStyleMotif@VUtilityWindow@@SAHXZ                    @4624 NONAME
?isStyleWindows95@VUtilityWindow@@SAHXZ                      @4625 NONAME
?isStyleWindows31@VUtilityWindow@@SAHXZ                      @4626 NONAME
?isStyleOs2@VUtilityWindow@@SAHXZ                            @4627 NONAME
?isStyleMotif@VUtilityWindow@@SAHXZ                          @4628 NONAME
?getBorderStyle@VUtilityWindow@@QBEDXZ                       @4629 NONAME
?setStyleWindows95@VUtilityWindow@@SAXXZ                     @4630 NONAME
?setStyleWindows31@VUtilityWindow@@SAXXZ                     @4631 NONAME
?setStyleOs2@VUtilityWindow@@SAXXZ                           @4632 NONAME
?setStyleMotif@VUtilityWindow@@SAXXZ                         @4633 NONAME
?setNewStyle@VUtilityWindow@@SAXXZ                           @4634 NONAME
?systemFontChanged@VUtilityWindow@@MAEXXZ                    @4635 NONAME
?erased@VUtilityWindow@@MAEHXZ                               @4636 NONAME
?paint@VUtilityWindow@@MAEHXZ                                @4637 NONAME
?paintTitleBar@VUtilityWindow@@IAEXHH@Z                      @4638 NONAME
?paintBorder@VUtilityWindow@@IAEXHH@Z                        @4639 NONAME
?paintTitle@VUtilityWindow@@IAEXHH@Z                         @4640 NONAME
?paintCloseBox@VUtilityWindow@@IAEXHH@Z                      @4641 NONAME
?activate@VUtilityWindow@@MAEHPAVVView@@@Z                   @4642 NONAME
?deactivate@VUtilityWindow@@MAEHPAVVView@@@Z                 @4643 NONAME
?givenFocus@VUtilityWindow@@MAEHXZ                           @4644 NONAME
?clearFocus@VUtilityWindow@@MAEHXZ                           @4645 NONAME
?key@VUtilityWindow@@MAEHHD@Z                                @4646 NONAME
?mouseEnter@VUtilityWindow@@MAEHH@Z                          @4647 NONAME
?mouseExit@VUtilityWindow@@MAEHH@Z                           @4648 NONAME
?mouseDn@VUtilityWindow@@MAEHHH@Z                            @4649 NONAME
?mouseUp@VUtilityWindow@@MAEHHH@Z                            @4650 NONAME
?mouseDbl@VUtilityWindow@@MAEHHH@Z                           @4651 NONAME
?rmouseDn@VUtilityWindow@@MAEHHH@Z                           @4652 NONAME
?mouseMv@VUtilityWindow@@MAEHHHH@Z                           @4653 NONAME
?noteFocus@VUtilityWindow@@IAEXH@Z                           @4654 NONAME
?hitTest@VUtilityWindow@@IAEHHHH@Z                           @4655 NONAME
?armCloseBox@VUtilityWindow@@IAEXH@Z                         @4656 NONAME
?activateCloseBox@VUtilityWindow@@QAEXXZ                     @4657 NONAME
?moveWithRubberBand@VUtilityWindow@@QAEHAAH00000@Z           @4658 NONAME
?resizeWithRubberBand@VUtilityWindow@@QAEHAAH00000H@Z        @4659 NONAME
?moveRubberBandCallback@VUtilityWindow@@IAEHAAH000HH@Z       @4660 NONAME
?resizeRubberBandCallback@VUtilityWindow@@IAEHHHAAH0H@Z      @4661 NONAME
?getPreferredSize@Manager@VUtilityWindow@@UAEXPAH0@Z         @4662 NONAME
?getMinimumSize@Manager@VUtilityWindow@@UAEXPAH0@Z           @4663 NONAME
?getConstrainedSize@Manager@VUtilityWindow@@UAEHPAH0HH@Z     @4664 NONAME
?frameChildren@Manager@VUtilityWindow@@UAEXHH@Z              @4665 NONAME
??0ClientWindow@VUtilityWindow@@QAE@PAVVWindow@@@Z           @4666 NONAME
??1ClientWindow@VUtilityWindow@@UAE@XZ                       @4667 NONAME
?mouseDn@ClientWindow@VUtilityWindow@@MAEHHH@Z               @4668 NONAME
?mouseDbl@ClientWindow@VUtilityWindow@@MAEHHH@Z              @4669 NONAME
?rmouseDn@ClientWindow@VUtilityWindow@@MAEHHH@Z              @4670 NONAME
??0ConfigurationMenu@VUtilityWindow@@QAE@XZ                  @4671 NONAME
?popup@ConfigurationMenu@VUtilityWindow@@QAEXHHPAV2@@Z       @4672 NONAME
?poppedUp@ConfigurationMenu@VUtilityWindow@@AAEXPAVVPopupMenu@@@Z @4673 NONAME
?poppedUpOpaque@ConfigurationMenu@VUtilityWindow@@AAEXPAVVPopupMenu@@@Z @4674 NONAME
?poppedUpStyle@ConfigurationMenu@VUtilityWindow@@AAEXPAVVPopupMenu@@@Z @4675 NONAME
?setMove@ConfigurationMenu@VUtilityWindow@@AAEXPAVVMenuItem@@@Z @4676 NONAME
?setSize@ConfigurationMenu@VUtilityWindow@@AAEXPAVVMenuItem@@@Z @4677 NONAME
?setClose@ConfigurationMenu@VUtilityWindow@@AAEXPAVVMenuItem@@@Z @4678 NONAME
?setOpaque@ConfigurationMenu@VUtilityWindow@@AAEXPAVVMenuItem@@@Z @4679 NONAME
?setStyle@ConfigurationMenu@VUtilityWindow@@AAEXPAVVMenuItem@@@Z @4680 NONAME
?putTo@VUtilityWindow@@UAEXAAVVArchiver@@@Z                  @4681 NONAME
?putTo@VUtilityWindow@@IAEXAAVVArchiver@@H@Z                 @4682 NONAME
?getFrom@VUtilityWindow@@UAEXAAVVArchiver@@@Z                @4683 NONAME
?getFrom@VUtilityWindow@@UAEXAAVVArchiver@@PAVVObject@@H@Z   @4684 NONAME
?realize@VUtilityWindow@@UAEXPAVVWindow@@@Z                  @4685 NONAME
?VViewVView@@YAPAXXZ                                         @4686 NONAME
?iam@VView@@UAEPAVVClass@@XZ                                 @4687 NONAME
?getClassDefaultStyle@VView@@SAAAVVStyle@@XZ                 @4688 NONAME
?getDefaultStyle@VView@@UBEAAVVStyle@@XZ                     @4689 NONAME
?init@VView@@IAEXXZ                                          @4690 NONAME
??0VView@@QAE@XZ                                             @4691 NONAME
??0VView@@QAE@ABVVString@@ABVVFrame@@PAVVWindow@@ABVVStyle@@@Z @4692 NONAME
??0VView@@QAE@ABVVFrame@@PAVVWindow@@ABVVStyle@@@Z           @4693 NONAME
??1VView@@UAE@XZ                                             @4694 NONAME
?clean@VView@@IAEXXZ                                         @4695 NONAME
?getInfo@VView@@MAEXAAVVWinInfo@@@Z                          @4696 NONAME
??RVView@@QAEXABVVFrame@@PAVVWindow@@ABVVStyle@@ABVVString@@@Z @4697 NONAME
??RVView@@QAEXABVVFrame@@PAVVWindow@@ABVVStyle@@@Z           @4698 NONAME
?stdSize@VView@@SAXABVVStyle@@PAH1@Z                         @4699 NONAME
?getMinSize@VView@@MAEXAAF0@Z                                @4700 NONAME
?setSizable@VView@@QAEXXZ                                    @4701 NONAME
?getSysMenu@VView@@QAEPAVVSysMenu@@XZ                        @4702 NONAME
?close@VView@@UAEHXZ                                         @4703 NONAME
?activate@VView@@UAEHPAV1@@Z                                 @4704 NONAME
?deactivate@VView@@UAEHPAV1@@Z                               @4705 NONAME
?setTitle@VView@@QAEXABVVString@@@Z                          @4706 NONAME
?winType@VView@@UAE?AW4WinType@@XZ                           @4707 NONAME
?getTitle@VView@@QAEHPADH@Z                                  @4708 NONAME
?getTitle@VView@@QAEHAAVVString@@@Z                          @4709 NONAME
?isTopLevel@VView@@UBEHXZ                                    @4710 NONAME
?takeFocus@VView@@UAEHXZ                                     @4711 NONAME
?givenFocus@VView@@UAEHXZ                                    @4712 NONAME
?setChildFocus@VView@@UAEXPAVVWindow@@@Z                     @4713 NONAME
?setDefButton@VView@@QAEXPAVVPushButton@@@Z                  @4714 NONAME
?setEscButton@VView@@QAEXPAVVPushButton@@@Z                  @4715 NONAME
?setAccel@VView@@UAEXHPAVVWindow@@P8VObject@@AEHXZ@Z         @4716 NONAME
?unsetAccel@VView@@UAEXH@Z                                   @4717 NONAME
?ok@VView@@UAEHPAVVButton@@@Z                                @4718 NONAME
?cancel@VView@@UAEHPAVVButton@@@Z                            @4719 NONAME
?okPressed@VView@@QAEHPAVVButton@@@Z                         @4720 NONAME
?cancelPressed@VView@@QAEHPAVVButton@@@Z                     @4721 NONAME
?enterHit@VView@@UAEHXZ                                      @4722 NONAME
?escapeHit@VView@@UAEHXZ                                     @4723 NONAME
?key@VView@@UAEHHD@Z                                         @4724 NONAME
?getSystemBorderSize@VView@@UBEXPAH0@Z                       @4725 NONAME
?enableBool@VView@@UAEXH@Z                                   @4726 NONAME
?getComponentThis@VView@@QAEPAVVComponentView@@XZ            @4727 NONAME
?putTo@VView@@UAEXAAVVArchiver@@@Z                           @4728 NONAME
?putTo@VView@@IAEXAAVVArchiver@@H@Z                          @4729 NONAME
?getFrom@VView@@UAEXAAVVArchiver@@@Z                         @4730 NONAME
?getFromWithTag@VView@@QAEXAAVVArchiver@@PAJ@Z               @4731 NONAME
?getFrom@VView@@UAEXAAVVArchiver@@PAVVObject@@H@Z            @4732 NONAME
?realize@VView@@UAEXPAVVWindow@@@Z                           @4733 NONAME
?VVirtualListBoxVVirtualListBox@@YAPAXXZ                     @4734 NONAME
?iam@VVirtualListBox@@UAEPAVVClass@@XZ                       @4735 NONAME
??0VVirtualListBox@@QAE@XZ                                   @4736 NONAME
??0VVirtualListBox@@QAE@ABVVFrame@@PAVVWindow@@ABVVStyle@@H@Z @4737 NONAME
??1VVirtualListBox@@UAE@XZ                                   @4738 NONAME
?init@VVirtualListBox@@IAEXXZ                                @4739 NONAME
?initGUI@VVirtualListBox@@IAEXH@Z                            @4740 NONAME
?setMinRowHeight@VVirtualListBox@@QAEXH@Z                    @4741 NONAME
?setFont@VVirtualListBox@@UAEXPAVVFont@@@Z                   @4742 NONAME
?getRowData@VVirtualListBox@@IAEHJAAURowData@1@@Z            @4743 NONAME
?givenFocus@VVirtualListBox@@MAEHXZ                          @4744 NONAME
?clearFocus@VVirtualListBox@@MAEHXZ                          @4745 NONAME
?takeFocus@VVirtualListBox@@UAEHXZ                           @4746 NONAME
?getStringAt@VVirtualListBox@@QAEXJAAVVString@@@Z            @4747 NONAME
?selectItem@VVirtualListBox@@QAEXJ@Z                         @4748 NONAME
?uponEvent@VVirtualListBox@@QAEXPAVVObject@@P82@AEHXZ11@Z    @4749 NONAME
?resized@VVirtualListBox@@MAEHHH@Z                           @4750 NONAME
?updateScrollBars@VVirtualListBox@@IAEHXZ                    @4751 NONAME
?vtScrollBar@VVirtualListBox@@IAEHJ@Z                        @4752 NONAME
?scrollList@VVirtualListBox@@IAEXJ@Z                         @4753 NONAME
?paint@VVirtualListBox@@MAEHXZ                               @4754 NONAME
?drawRow@VVirtualListBox@@IAEHJHHH@Z                         @4755 NONAME
?drawFocusRing@VVirtualListBox@@IAEXJH@Z                     @4756 NONAME
?gotoRow@VVirtualListBox@@IAEHJHH@Z                          @4757 NONAME
?mouseDn@VVirtualListBox@@MAEHHH@Z                           @4758 NONAME
?mouseDbl@VVirtualListBox@@MAEHHH@Z                          @4759 NONAME
?mouseMv@VVirtualListBox@@MAEHHHH@Z                          @4760 NONAME
?mouseUp@VVirtualListBox@@MAEHHH@Z                           @4761 NONAME
?timesUp@VVirtualListBox@@IAEHPAVVTimer@@@Z                  @4762 NONAME
?key@VVirtualListBox@@MAEHHD@Z                               @4763 NONAME
?setTracking@VVirtualListBox@@QAEXH@Z                        @4764 NONAME
?isTracking@VVirtualListBox@@QBEHXZ                          @4765 NONAME
?putTo@VVirtualListBox@@UAEXAAVVArchiver@@@Z                 @4766 NONAME
?putTo@VVirtualListBox@@IAEXAAVVArchiver@@H@Z                @4767 NONAME
?getFrom@VVirtualListBox@@UAEXAAVVArchiver@@@Z               @4768 NONAME
?getFrom@VVirtualListBox@@UAEXAAVVArchiver@@PAVVObject@@H@Z  @4769 NONAME
?realize@VVirtualListBox@@UAEXPAVVWindow@@@Z                 @4770 NONAME
?VLocaleVLocale@@YAPAXXZ                                     @4771 NONAME
?iam@VLocale@@UAEPAVVClass@@XZ                               @4772 NONAME
??0VLocale@@QAE@XZ                                           @4773 NONAME
?init@VLocale@@IAEXXZ                                        @4774 NONAME
??0VLocale@@QAE@ABVVString@@@Z                               @4775 NONAME
?init@VLocale@@IAEXABVVString@@@Z                            @4776 NONAME
??1VLocale@@UAE@XZ                                           @4777 NONAME
?language@VLocale@@QBE?AV1@XZ                                @4778 NONAME
?region@VLocale@@QBE?AV1@XZ                                  @4779 NONAME
?isEqual@VLocale@@UBEHPAVVObject@@@Z                         @4780 NONAME
?compare@VLocale@@UBEHPAVVObject@@@Z                         @4781 NONAME
?hash@VLocale@@UBEJXZ                                        @4782 NONAME
?reset@VLocale@@UAEXXZ                                       @4783 NONAME
?copyTo@VLocale@@UAEHPAVVObject@@@Z                          @4784 NONAME
?copyFrom@VLocale@@UAEHPAVVObject@@@Z                        @4785 NONAME
?isValid@VLocale@@QBEHXZ                                     @4786 NONAME
?gets@VLocale@@QBEPBDXZ                                      @4787 NONAME
?fromId@VLocale@@SA?AV1@K@Z                                  @4788 NONAME
?current@VLocale@@SA?AV1@XZ                                  @4789 NONAME
?id@VLocale@@QBEKXZ                                          @4790 NONAME
?putTo@VLocale@@UAEXAAVVArchiver@@@Z                         @4791 NONAME
?getFrom@VLocale@@UAEXAAVVArchiver@@@Z                       @4792 NONAME
?getFrom@VLocale@@UAEXAAVVArchiver@@PAVVObject@@H@Z          @4793 NONAME
?description@VLocale@@QBE?AVVString@@XZ                      @4794 NONAME
?VTreeListBoxVTreeListBox@@YAPAXXZ                           @4795 NONAME
?iam@VTreeListBox@@UAEPAVVClass@@XZ                          @4796 NONAME
??0VTreeListBox@@QAE@ABVVFrame@@PAVVWindow@@ABVVStyle@@H@Z   @4797 NONAME
??0VTreeListBox@@QAE@XZ                                      @4798 NONAME
?init@VTreeListBox@@QAEXXZ                                   @4799 NONAME
?setFont@VTreeListBox@@UAEXPAVVFont@@@Z                      @4800 NONAME
?systemFontChanged@VTreeListBox@@MAEXXZ                      @4801 NONAME
??1VTreeListBox@@UAE@XZ                                      @4802 NONAME
?treeChanged@VTreeListBox@@AAEXPAVVTree@@@Z                  @4803 NONAME
?setRefresh@VTreeListBox@@QAEXH@Z                            @4804 NONAME
?setTree@VTreeListBox@@QAEXPAVVTree@@@Z                      @4805 NONAME
?reset@VTreeListBox@@UAEXXZ                                  @4806 NONAME
?takeFocus@VTreeListBox@@UAEHXZ                              @4807 NONAME
?givenFocus@VTreeListBox@@EAEHXZ                             @4808 NONAME
?clearFocus@VTreeListBox@@EAEHXZ                             @4809 NONAME
?uponClick@VTreeListBox@@QAEXPAVVObject@@P82@AEHXZ111111@Z   @4810 NONAME
?uponSelect@VTreeListBox@@QAEXPAVVObject@@P82@AEHXZ@Z        @4811 NONAME
?uponDblClick@VTreeListBox@@QAEXPAVVObject@@P82@AEHXZ@Z      @4812 NONAME
?uponRmouseClick@VTreeListBox@@QAEXPAVVObject@@P82@AEHXZ@Z   @4813 NONAME
?uponExpand@VTreeListBox@@QAEXPAVVObject@@P82@AEHXZ@Z        @4814 NONAME
?uponExpanded@VTreeListBox@@QAEXPAVVObject@@P82@AEHXZ@Z      @4815 NONAME
?uponUpdateScroll@VTreeListBox@@QAEXPAVVObject@@P82@AEHXZ@Z  @4816 NONAME
?uponNodeRename@VTreeListBox@@QAEXPAVVObject@@P82@AEHXZ@Z    @4817 NONAME
?uponPreNodeRename@VTreeListBox@@QAEXPAVVObject@@P82@AEHXZ@Z @4818 NONAME
?resized@VTreeListBox@@EAEHHH@Z                              @4819 NONAME
?addNode@VTreeListBox@@QAEHPAVVTreeNode@@00@Z                @4820 NONAME
?addNode@VTreeListBox@@QAEPAVVTreeNode@@ABVVString@@PAV2@PAVVObject@@HPAVVBitMap@@ABVVColor@@PAVVFont@@H@Z @4821 NONAME
?renameNode@VTreeListBox@@QAEXPAVVTreeNode@@ABVVString@@@Z   @4822 NONAME
?renameNode@VTreeListBox@@QAEXPAVVTreeNode@@@Z               @4823 NONAME
?nodeRenameAccept@VTreeListBox@@AAEXPAVVEditLineNotify@@@Z   @4824 NONAME
?nodeRenameCancel@VTreeListBox@@AAEXPAVVEditLineNotify@@@Z   @4825 NONAME
?bitmapNode@VTreeListBox@@QAEXPAVVTreeNode@@PAVVBitMap@@@Z   @4826 NONAME
?colorNode@VTreeListBox@@QAEXPAVVTreeNode@@ABVVColor@@@Z     @4827 NONAME
?fontNode@VTreeListBox@@QAEXPAVVTreeNode@@PAVVFont@@@Z       @4828 NONAME
?updateScrollBars@VTreeListBox@@QAEHXZ                       @4829 NONAME
?vtScrollBar@VTreeListBox@@AAEHH@Z                           @4830 NONAME
?htScrollBar@VTreeListBox@@AAEHH@Z                           @4831 NONAME
?scrollTree@VTreeListBox@@QAEXHH@Z                           @4832 NONAME
?getMaxHorizontalExtent@VTreeListBox@@QAEHXZ                 @4833 NONAME
?getNodeHorizontalExtent@VTreeListBox@@QAEHPAVVTreeNode@@@Z  @4834 NONAME
?updateNode@VTreeListBox@@QAEXPAVVTreeNode@@HH@Z             @4835 NONAME
?getImage@VTreeListBox@@IBEPAVVImage@@PAVVBitMap@@@Z         @4836 NONAME
?paint@VTreeListBox@@UAEHXZ                                  @4837 NONAME
?drawConnectingLine@VTreeListBox@@QAEXHHHH@Z                 @4838 NONAME
?systemColorChanged@VTreeListBox@@MAEXXZ                     @4839 NONAME
?gotoNode@VTreeListBox@@QAEXPAVVTreeNode@@HHH@Z              @4840 NONAME
?getNodeIndex@VTreeListBox@@QAEHPAVVTreeNode@@H@Z            @4841 NONAME
?clickAt@VTreeListBox@@AAEPAVVTreeNode@@HHH@Z                @4842 NONAME
?rmouseDn@VTreeListBox@@UAEHHH@Z                             @4843 NONAME
?popupMenuAt@VTreeListBox@@QAEHPAVVPopupMenu@@@Z             @4844 NONAME
?mouseDn@VTreeListBox@@UAEHHH@Z                              @4845 NONAME
?getNodeRect@VTreeListBox@@AAEXPAVVTreeNode@@HAAVVRectangle@@@Z @4846 NONAME
?mouseDbl@VTreeListBox@@UAEHHH@Z                             @4847 NONAME
?mouseMv@VTreeListBox@@UAEHHHH@Z                             @4848 NONAME
?mouseUp@VTreeListBox@@UAEHHH@Z                              @4849 NONAME
?key@VTreeListBox@@UAEHHD@Z                                  @4850 NONAME
?findNextNode@VTreeListBox@@QAEPAVVTreeNode@@PAV2@H@Z        @4851 NONAME
?findPrevNode@VTreeListBox@@QAEPAVVTreeNode@@PAV2@H@Z        @4852 NONAME
?expandNode@VTreeListBox@@QAEXPAVVTreeNode@@H@Z              @4853 NONAME
?promoteNode@VTreeListBox@@QAEHPAVVTreeNode@@@Z              @4854 NONAME
?demoteNode@VTreeListBox@@QAEHPAVVTreeNode@@@Z               @4855 NONAME
?removeNode@VTreeListBox@@QAEXPAVVTreeNode@@@Z               @4856 NONAME
?moveNode@VTreeListBox@@QAEHPAVVTreeNode@@0@Z                @4857 NONAME
?deSelectNode@VTreeListBox@@QAEXPAVVTreeNode@@@Z             @4858 NONAME
?getSelectedNodes@VTreeListBox@@QAEAAVVOrdCollect@@XZ        @4859 NONAME
?isNodeSelected@VTreeListBox@@QAEHPAVVTreeNode@@@Z           @4860 NONAME
?getNodeAt@VTreeListBox@@QAEPAVVTreeNode@@HHW4HiliteState@1@@Z @4861 NONAME
?getObject@VTreeListBox@@UAEPAVVObject@@PAVVTreeNode@@@Z     @4862 NONAME
?hiliteNode@VTreeListBox@@QAEXPAVVTreeNode@@W4HiliteState@1@@Z @4863 NONAME
?setTreeListBox@VTreeListBox@@QAEXHABVVStyle@@@Z             @4864 NONAME
?deselectAll@VTreeListBox@@QAEXXZ                            @4865 NONAME
?preMultiSelect@VTreeListBox@@AAEXXZ                         @4866 NONAME
?enableBool@VTreeListBox@@MAEXH@Z                            @4867 NONAME
?paletteChanged@VTreeListBox@@EAEHH@Z                        @4868 NONAME
?getClassDefaultStyle@VTreeListBox@@SAAAVVStyle@@XZ          @4869 NONAME
?getDefaultStyle@VTreeListBox@@UBEAAVVStyle@@XZ              @4870 NONAME
?putTo@VTreeListBox@@UAEXAAVVArchiver@@@Z                    @4871 NONAME
?putTo@VTreeListBox@@QAEXAAVVArchiver@@H@Z                   @4872 NONAME
?getFrom@VTreeListBox@@UAEXAAVVArchiver@@@Z                  @4873 NONAME
?getFrom@VTreeListBox@@UAEXAAVVArchiver@@PAVVObject@@H@Z     @4874 NONAME
?realize@VTreeListBox@@UAEXPAVVWindow@@@Z                    @4875 NONAME
?VTreeVTree@@YAPAXXZ                                         @4876 NONAME
?iam@VTree@@UAEPAVVClass@@XZ                                 @4877 NONAME
??0VTree@@QAE@XZ                                             @4878 NONAME
??1VTree@@UAE@XZ                                             @4879 NONAME
?reset@VTree@@UAEXXZ                                         @4880 NONAME
?addNode@VTree@@QAEPAVVTreeNode@@ABVVString@@PAV2@PAVVObject@@HH@Z @4881 NONAME
?promoteNode@VTree@@QAEHPAVVTreeNode@@@Z                     @4882 NONAME
?demoteNode@VTree@@QAEHPAVVTreeNode@@@Z                      @4883 NONAME
?removeNode@VTree@@QAEXPAVVTreeNode@@@Z                      @4884 NONAME
?moveNode@VTree@@QAEXPAVVTreeNode@@0@Z                       @4885 NONAME
?deleteNode@VTree@@QAEXPAVVTreeNode@@@Z                      @4886 NONAME
?selectNode@VTree@@QAEHPAVVTreeNode@@PAVVWindow@@H@Z         @4887 NONAME
?setRefresh@VTree@@QAEXHPAVVWindow@@@Z                       @4888 NONAME
?renameNode@VTree@@QAEXPAVVTreeNode@@ABVVString@@@Z          @4889 NONAME
?bitmapNode@VTree@@QAEXPAVVTreeNode@@PAVVBitMap@@@Z          @4890 NONAME
?colorNode@VTree@@QAEXPAVVTreeNode@@ABVVColor@@@Z            @4891 NONAME
?fontNode@VTree@@QAEXPAVVTreeNode@@PAVVFont@@@Z              @4892 NONAME
?getNodeCount@VTree@@QAEHXZ                                  @4893 NONAME
?getNodeChildNo@VTree@@QAEHPAVVTreeNode@@@Z                  @4894 NONAME
?isParentOf@VTree@@QAEHPAVVTreeNode@@0@Z                     @4895 NONAME
?findNode@VTree@@QAEPAVVTreeNode@@ABVVString@@H@Z            @4896 NONAME
?findNode@VTree@@QAEPAVVTreeNode@@PAVVObject@@H@Z            @4897 NONAME
?find@VTree@@AAEPAVVTreeNode@@ABVVString@@PAVVObject@@H@Z    @4898 NONAME
?getNodeAt@VTree@@QAEPAVVTreeNode@@HH@Z                      @4899 NONAME
?findNext@VTree@@AAEPAVVTreeNode@@PAV2@H@Z                   @4900 NONAME
?findPrev@VTree@@AAEPAVVTreeNode@@PAV2@H@Z                   @4901 NONAME
?expChildCount@VTree@@QAEHPAVVTreeNode@@@Z                   @4902 NONAME
?setNodeExpand@VTree@@QAEXPAVVTreeNode@@HPAVVWindow@@@Z      @4903 NONAME
?resetHints@VTree@@AAEXXZ                                    @4904 NONAME
?getNodeIndex@VTree@@QAEHPAVVTreeNode@@H@Z                   @4905 NONAME
?deSelectNode@VTree@@QAEXPAVVTreeNode@@@Z                    @4906 NONAME
?getFrom@VTree@@UAEXAAVVArchiver@@@Z                         @4907 NONAME
?getFrom@VTree@@UAEXAAVVArchiver@@PAVVObject@@H@Z            @4908 NONAME
?putTo@VTree@@UAEXAAVVArchiver@@@Z                           @4909 NONAME
?swscanf@VWideCharAux@@SAHPBG0ZZ                             @4910 NONAME
?mbslen@VWideCharAux@@SAIPBD@Z                               @4911 NONAME
?mbslen@VWideCharAux@@SAIPBDI@Z                              @4912 NONAME
?atowc@VWideCharAux@@SAHAAGD@Z                               @4913 NONAME
?wctoa@VWideCharAux@@SAHAADABG@Z                             @4914 NONAME
?wcscpy@VWideCharAux@@SAPAGPAGPBG@Z                          @4915 NONAME
?wcslen@VWideCharAux@@SAIPBG@Z                               @4916 NONAME
?wcscmp@VWideCharAux@@SAHPBG0@Z                              @4917 NONAME
?wcsncmp@VWideCharAux@@SAHPBG0I@Z                            @4918 NONAME
?wcscoll@VWideCharAux@@SAHPBG0@Z                             @4919 NONAME
?wcschr@VWideCharAux@@SAPAGPBGG@Z                            @4920 NONAME
?iswdigit@VWideCharAux@@SAHG@Z                               @4921 NONAME
?iswspace@VWideCharAux@@SAHG@Z                               @4922 NONAME
?wcstok@VWideCharAux@@SAPAGPAGPBG@Z                          @4923 NONAME
?iswalpha@VWideCharAux@@SAHG@Z                               @4924 NONAME
?iswalnum@VWideCharAux@@SAHG@Z                               @4925 NONAME
?iswpunct@VWideCharAux@@SAHG@Z                               @4926 NONAME
?iswcntrl@VWideCharAux@@SAHG@Z                               @4927 NONAME
?towlower@VWideCharAux@@SAJJ@Z                               @4928 NONAME
?towupper@VWideCharAux@@SAJJ@Z                               @4929 NONAME
?wcstol@VWideCharAux@@SAJPBGPAPAGH@Z                         @4930 NONAME
?wcstoul@VWideCharAux@@SAKPBGPAPAGH@Z                        @4931 NONAME
?wcstod@VWideCharAux@@SANPBGPAPAG@Z                          @4932 NONAME
?wcstok@VWideCharAux@@SAPAGPAGPBGPAPAG@Z                     @4933 NONAME
?checkLocale@VWideCharAux@@SAXXZ                             @4934 NONAME
?VWindowVWindow@@YAPAXXZ                                     @4935 NONAME
?iam@VWindow@@UAEPAVVClass@@XZ                               @4936 NONAME
?getClassDefaultStyle@VWindow@@SAAAVVStyle@@XZ               @4937 NONAME
?getDefaultStyle@VWindow@@UBEAAVVStyle@@XZ                   @4938 NONAME
??0VWindow@@QAE@ABVVFrame@@PAV0@ABVVStyle@@@Z                @4939 NONAME
??0VWindow@@QAE@ABVVString@@ABVVFrame@@PAV0@ABVVStyle@@@Z    @4940 NONAME
??0VWindow@@QAE@XZ                                           @4941 NONAME
??0VWindow@@QAE@PAUHWND__@@@Z                                @4942 NONAME
?getHndl@VWindow@@UAEPAUHDC__@@XZ                            @4943 NONAME
?ungetHndl@VWindow@@UAEXXZ                                   @4944 NONAME
?init@VWindow@@IAEXPAV1@@Z                                   @4945 NONAME
?build@VWindow@@UAEHABVVStyle@@@Z                            @4946 NONAME
?addChild@VWindow@@UAEXPAV1@@Z                               @4947 NONAME
?insertChild@VWindow@@UAEXPAV1@H@Z                           @4948 NONAME
?childAdded@VWindow@@UAEXPAV1@H@Z                            @4949 NONAME
?childRemoved@VWindow@@UAEXPAV1@H@Z                          @4950 NONAME
?reparent@VWindow@@QAEHPAV1@H@Z                              @4951 NONAME
?childReparented@VWindow@@UAEXPAV1@0@Z                       @4952 NONAME
?childParented@VWindow@@UAEXPAV1@0@Z                         @4953 NONAME
?bringToTop@VWindow@@QAEXXZ                                  @4954 NONAME
?bringToTop@VWindow@@QAEXPAV1@@Z                             @4955 NONAME
?erase@VWindow@@QAEXXZ                                       @4956 NONAME
?destroyed@VWindow@@UAEXXZ                                   @4957 NONAME
?frame@VWindow@@QAEXXZ                                       @4958 NONAME
??1VWindow@@UAE@XZ                                           @4959 NONAME
?sizeOfWin@VWindow@@QAEXPAH0@Z                               @4960 NONAME
?getAbs@VWindow@@QAEXPAH000@Z                                @4961 NONAME
?getMin@VWindow@@QAEXPAH0@Z                                  @4962 NONAME
?getParentAbs@VWindow@@QAEXPAH000@Z                          @4963 NONAME
?getRatio@VWindow@@QAEXPAM000@Z                              @4964 NONAME
?getRel@VWindow@@QAEXPAH000@Z                                @4965 NONAME
?sizeOfImage@VWindow@@UAEXPAH0@Z                             @4966 NONAME
?getClientAbs@VWindow@@QAEXPAH000@Z                          @4967 NONAME
?getClientRel@VWindow@@QAEXPAH000@Z                          @4968 NONAME
?setFrame@VWindow@@QAEXAAVVFrame@@@Z                         @4969 NONAME
?setFrameUnits@VWindow@@QAEXW4Units@VFrame@@@Z               @4970 NONAME
?setFrameRatios@VWindow@@QAEXHHHH@Z                          @4971 NONAME
?isEnabled@VWindow@@QAEHXZ                                   @4972 NONAME
?isHidden@VWindow@@UAEHXZ                                    @4973 NONAME
?isParentOf@VWindow@@QAEHPAV1@@Z                             @4974 NONAME
?isTopLevel@VWindow@@UBEHXZ                                  @4975 NONAME
?getTopLevelParent@VWindow@@QAEPAV1@XZ                       @4976 NONAME
?getAppLevelParent@VWindow@@QAEPAVVAppView@@XZ               @4977 NONAME
?makeLegible@VWindow@@QAEHXZ                                 @4978 NONAME
?mapToScreen@VWindow@@QAEXPAH0@Z                             @4979 NONAME
?mapToWin@VWindow@@QAEXPAH0@Z                                @4980 NONAME
?getWindowRect@VWindow@@QAEXAAVVRectangle@@@Z                @4981 NONAME
?moveWin@VWindow@@IAEXH@Z                                    @4982 NONAME
?move@VWindow@@QAEXAAVVRectangle@@H@Z                        @4983 NONAME
?translate@VWindow@@QAEXVVRatio@@0@Z                         @4984 NONAME
?move@VWindow@@QAEXVVRatio@@0H@Z                             @4985 NONAME
?resize@VWindow@@QAEXVVRatio@@0@Z                            @4986 NONAME
?move@VWindow@@QAEXVVRatio@@000H@Z                           @4987 NONAME
?paint@VWindow@@UAEHXZ                                       @4988 NONAME
?quit@VWindow@@UAEHXZ                                        @4989 NONAME
?resized@VWindow@@UAEHHH@Z                                   @4990 NONAME
?setBorder@VWindow@@QAEXXZ                                   @4991 NONAME
?setBorder@VWindow@@QAEXH@Z                                  @4992 NONAME
?hasBorder@VWindow@@QBEHXZ                                   @4993 NONAME
?setDefRatio@VWindow@@QAEXXZ                                 @4994 NONAME
?setRatio@VWindow@@QAEXVVRatio@@000@Z                        @4995 NONAME
?enableBool@VWindow@@UAEXH@Z                                 @4996 NONAME
?showBool@VWindow@@UAEXHH@Z                                  @4997 NONAME
?size@VWindow@@QAEXHH@Z                                      @4998 NONAME
?takeFocus@VWindow@@UAEHXZ                                   @4999 NONAME
?givenFocus@VWindow@@UAEHXZ                                  @5000 NONAME
?clearFocus@VWindow@@UAEHXZ                                  @5001 NONAME
?losingFocus@VWindow@@UAEHPAV1@@Z                            @5002 NONAME
?lostFocus@VWindow@@UAEHXZ                                   @5003 NONAME
?setChildFocus@VWindow@@UAEXPAV1@@Z                          @5004 NONAME
?shedFocus@VWindow@@IAEXXZ                                   @5005 NONAME
?nextFocus@VWindow@@UAEHXZ                                   @5006 NONAME
?prevFocus@VWindow@@UAEHXZ                                   @5007 NONAME
?nextChildFocus@VWindow@@UAEHPAV1@@Z                         @5008 NONAME
?prevChildFocus@VWindow@@UAEHPAV1@@Z                         @5009 NONAME
?controlNextFocus@VWindow@@UAEHXZ                            @5010 NONAME
?controlPrevFocus@VWindow@@UAEHXZ                            @5011 NONAME
?controlNextChildFocus@VWindow@@UAEHPAV1@@Z                  @5012 NONAME
?controlPrevChildFocus@VWindow@@UAEHPAV1@@Z                  @5013 NONAME
?getNextChildFocusCandidate@VWindow@@UBEPAV1@PAV1@@Z         @5014 NONAME
?getPrevChildFocusCandidate@VWindow@@UBEPAV1@PAV1@@Z         @5015 NONAME
?getFocusCandidate@VWindow@@UBEPAV1@H@Z                      @5016 NONAME
?containsFocus@VWindow@@QBEPAV1@XZ                           @5017 NONAME
?hasFocus@VWindow@@QBEHXZ                                    @5018 NONAME
?setTabStop@VWindow@@UAEXH@Z                                 @5019 NONAME
?isTabStop@VWindow@@UBEHXZ                                   @5020 NONAME
?disableFocus@VWindow@@QAEXH@Z                               @5021 NONAME
?checkLosingFocus@VWindow@@SAHPAV1@@Z                        @5022 NONAME
?key@VWindow@@UAEHHD@Z                                       @5023 NONAME
?propagateKey@VWindow@@QAEHHD@Z                              @5024 NONAME
?enterHit@VWindow@@UAEHXZ                                    @5025 NONAME
?escapeHit@VWindow@@UAEHXZ                                   @5026 NONAME
?keyUp@VWindow@@UAEHHD@Z                                     @5027 NONAME
?show@VWindow@@QAEXH@Z                                       @5028 NONAME
?update@VWindow@@UAEHXZ                                      @5029 NONAME
?moved@VWindow@@UAEHHH@Z                                     @5030 NONAME
?mouseDbl@VWindow@@UAEHHH@Z                                  @5031 NONAME
?mouseDn@VWindow@@UAEHHH@Z                                   @5032 NONAME
?mouseEnter@VWindow@@UAEHH@Z                                 @5033 NONAME
?mouseExit@VWindow@@UAEHH@Z                                  @5034 NONAME
?mouseMv@VWindow@@UAEHHHH@Z                                  @5035 NONAME
?mouseUp@VWindow@@UAEHHH@Z                                   @5036 NONAME
?mouseWheel@VWindow@@UAEHHHHH@Z                              @5037 NONAME
?rmouseDbl@VWindow@@UAEHHH@Z                                 @5038 NONAME
?rmouseDn@VWindow@@UAEHHH@Z                                  @5039 NONAME
?rmouseUp@VWindow@@UAEHHH@Z                                  @5040 NONAME
?mmouseDn@VWindow@@UAEHHH@Z                                  @5041 NONAME
?mmouseUp@VWindow@@UAEHHH@Z                                  @5042 NONAME
?mmouseDbl@VWindow@@UAEHHH@Z                                 @5043 NONAME
?update@VWindow@@UAEXPAVVRectangle@@H@Z                      @5044 NONAME
?user@VWindow@@UAEHIIJ@Z                                     @5045 NONAME
?wrtText@VWindow@@QAEXPAVVString@@HH@Z                       @5046 NONAME
?wrtText@VWindow@@QAEXPBDHH@Z                                @5047 NONAME
?close@VWindow@@UAEHXZ                                       @5048 NONAME
?scroll@VWindow@@QAEXHH@Z                                    @5049 NONAME
?removeChild@VWindow@@QAEHPAV1@@Z                            @5050 NONAME
?hash@VWindow@@UBEJXZ                                        @5051 NONAME
?isEqual@VWindow@@UBEHPAVVObject@@@Z                         @5052 NONAME
?dimension@VWindow@@QAE?AVVLocation@@XZ                      @5053 NONAME
?move@VWindow@@QAEXABVVFrame@@H@Z                            @5054 NONAME
??RVWindow@@QAEXABVVFrame@@PAV0@ABVVStyle@@@Z                @5055 NONAME
??RVWindow@@QAEXABVVFrame@@PAV0@ABVVStyle@@ABVVString@@@Z    @5056 NONAME
?erased@VWindow@@UAEHXZ                                      @5057 NONAME
?stdSize@VWindow@@SAXABVVStyle@@PAH1@Z                       @5058 NONAME
?clean@VWindow@@QAEXXZ                                       @5059 NONAME
?getAbs@VWindow@@QAEXPAH0@Z                                  @5060 NONAME
?winDispatch@VWindow@@UAEJAAVVEvent@@@Z                      @5061 NONAME
?getInfo@VWindow@@MAEXAAVVWinInfo@@@Z                        @5062 NONAME
?getCtlColor@VWindow@@MAEIXZ                                 @5063 NONAME
??RVWindow@@QAEXABVVFrame@@PAV0@@Z                           @5064 NONAME
?setBackground@VWindow@@QAEXPAVVBrush@@J@Z                   @5065 NONAME
?setForeground@VWindow@@QAEXVVColor@@J@Z                     @5066 NONAME
?setDefaultForeground@VWindow@@QAEXH@Z                       @5067 NONAME
?setCursor@VWindow@@QAEXPAVVMouseCursor@@J@Z                 @5068 NONAME
?winType@VWindow@@UAE?AW4WinType@@XZ                         @5069 NONAME
?setName@VWindow@@QAEXABVVString@@@Z                         @5070 NONAME
?findWindow@VWindow@@QBEPAV1@ABVVString@@PAVVClass@@@Z       @5071 NONAME
?centerWindow@VWindow@@QAEXPAV1@@Z                           @5072 NONAME
?frameWindow@VWindow@@UAEXH@Z                                @5073 NONAME
?reframeWindow@VWindow@@QAEXXZ                               @5074 NONAME
?invalidateGeometry@VWindow@@QAEXH@Z                         @5075 NONAME
?resizeClientArea@VWindow@@UAEXHH@Z                          @5076 NONAME
?getSystemBorderSize@VWindow@@UBEXPAH0@Z                     @5077 NONAME
?getInternalBorderGeometry@VWindow@@UBEXPAH000@Z             @5078 NONAME
?determinePreferredSize@VWindow@@QBEXPAH0@Z                  @5079 NONAME
?determineConstrainedSize@VWindow@@QBEXPAH0HH@Z              @5080 NONAME
?determineMinimumSize@VWindow@@QBEXPAH0@Z                    @5081 NONAME
?determineMaximumSize@VWindow@@QBEXPAH0@Z                    @5082 NONAME
?constrainMinimumSize@VWindow@@QAEXXZ                        @5083 NONAME
?constrainMinimumSize@VWindow@@QAEXHH@Z                      @5084 NONAME
?constrainMaximumSize@VWindow@@QAEXXZ                        @5085 NONAME
?constrainMaximumSize@VWindow@@QAEXHH@Z                      @5086 NONAME
?getPreferredSize@VWindow@@UBEXPAH0@Z                        @5087 NONAME
?getConstrainedSize@VWindow@@UBEHPAH0HH@Z                    @5088 NONAME
?getMinimumSize@VWindow@@UBEXPAH0@Z                          @5089 NONAME
?getMaximumSize@VWindow@@UBEXPAH0@Z                          @5090 NONAME
?setGeoManager@VWindow@@QAEPAVVGeoManager@@XZ                @5091 NONAME
?setGeoForm@VWindow@@QAEPAVVGeoForm@@XZ                      @5092 NONAME
?setGeoRow@VWindow@@QAEPAVVGeoRow@@XZ                        @5093 NONAME
?setGeoRowOrColumn@VWindow@@QAEPAVVGeoRowOrColumn@@XZ        @5094 NONAME
?setGeoColumn@VWindow@@QAEPAVVGeoColumn@@XZ                  @5095 NONAME
?setGeoManager@VWindow@@QAEPAVVGeoManager@@PAV2@@Z           @5096 NONAME
?getGeoManager@VWindow@@QBEPAVVGeoManager@@XZ                @5097 NONAME
?getGeoForm@VWindow@@QBEPAVVGeoForm@@XZ                      @5098 NONAME
?getGeoRow@VWindow@@QBEPAVVGeoRow@@XZ                        @5099 NONAME
?getGeoColumn@VWindow@@QBEPAVVGeoColumn@@XZ                  @5100 NONAME
?getGeoRowOrColumn@VWindow@@QBEPAVVGeoRowOrColumn@@XZ        @5101 NONAME
?getGeoIndex@VWindow@@QBEHXZ                                 @5102 NONAME
?setDontFrame@VWindow@@QAEXH@Z                               @5103 NONAME
?isDontFrame@VWindow@@QBEHXZ                                 @5104 NONAME
?updateGeometry@VWindow@@UAEXH@Z                             @5105 NONAME
?setPhysical@VWindow@@QAEXABVVRectangle@@@Z                  @5106 NONAME
?getPhysical@VWindow@@QBE?AVVRectangle@@XZ                   @5107 NONAME
?setGeometry@VWindow@@UAEXHHHH@Z                             @5108 NONAME
?setGeometryPosition@VWindow@@UAEXHH@Z                       @5109 NONAME
?setGeometryOffset@VWindow@@UAEXHH@Z                         @5110 NONAME
?setGeometrySize@VWindow@@UAEXHH@Z                           @5111 NONAME
?beginDeferGeometryChanges@VWindow@@SAXXZ                    @5112 NONAME
?endDeferGeometryChanges@VWindow@@SAXXZ                      @5113 NONAME
?flushDeferredGeometryChanges@VWindow@@SAXXZ                 @5114 NONAME
?attachWin@VWindow@@QAEXPAV1@W4Side@VAttach@@W4Type@3@H0@Z   @5115 NONAME
?setAttach@VWindow@@QAEXW4Side@VAttach@@W4Type@3@HPAV1@@Z    @5116 NONAME
?getAttach@VWindow@@QBEPAVVAttach@@XZ                        @5117 NONAME
?getMinSize@VWindow@@UAEXAAF0@Z                              @5118 NONAME
?getPrefSize@VWindow@@UAEXAAF0@Z                             @5119 NONAME
?detachWin@VWindow@@QAEXPAV1@@Z                              @5120 NONAME
?frameChildren@VWindow@@UAEHHHH@Z                            @5121 NONAME
?clipToChildren@VWindow@@QBEHXZ                              @5122 NONAME
?clipToChildren@VWindow@@QAEXH@Z                             @5123 NONAME
?clipToSiblings@VWindow@@QBEHXZ                              @5124 NONAME
?clipToSiblings@VWindow@@QAEXH@Z                             @5125 NONAME
?obscured@VWindow@@IBEHXZ                                    @5126 NONAME
?setPalette@VWindow@@UAEXPAUHPALETTE__@@@Z                   @5127 NONAME
?paletteChanged@VWindow@@UAEHH@Z                             @5128 NONAME
?setHelpId@VWindow@@QAEXJ@Z                                  @5129 NONAME
?getHelpId@VWindow@@QBEJH@Z                                  @5130 NONAME
?contextHelp@VWindow@@UAEHXZ                                 @5131 NONAME
?contextMenu@VWindow@@UAEHXZ                                 @5132 NONAME
?has3dEffects@VWindow@@MBEHXZ                                @5133 NONAME
?has3dEffects@VWindow@@MBEHW4V_3D_EFFECTS@@@Z                @5134 NONAME
?getFont@VWindow@@UBEPAVVFont@@XZ                            @5135 NONAME
?fontSize@VWindow@@UAEXPAH0@Z                                @5136 NONAME
?setFont@VWindow@@UAEXPAVVFont@@@Z                           @5137 NONAME
?setFont@VWindow@@QAEXPAVVFont@@H@Z                          @5138 NONAME
?registerDropSite@VWindow@@QAEXPAVVDropSite@@@Z              @5139 NONAME
?registerDragSite@VWindow@@QAEXPAVVDragSite@@@Z              @5140 NONAME
?setArchiveEnable@VWindow@@QAEXH@Z                           @5141 NONAME
?putTo@VWindow@@UAEXAAVVArchiver@@@Z                         @5142 NONAME
?putTo@VWindow@@IAEXAAVVArchiver@@H@Z                        @5143 NONAME
?getFrom@VWindow@@UAEXAAVVArchiver@@@Z                       @5144 NONAME
?getFrom@VWindow@@UAEXAAVVArchiver@@PAVVObject@@H@Z          @5145 NONAME
?getAttachFrom@VWindow@@IAEXAAVVArchiver@@@Z                 @5146 NONAME
?putChildrenTo@VWindow@@IAEXAAVVArchiver@@@Z                 @5147 NONAME
?getChildrenFrom@VWindow@@IAEXAAVVArchiver@@H@Z              @5148 NONAME
?realize@VWindow@@UAEXPAV1@@Z                                @5149 NONAME
?realizeChildren@VWindow@@QAEXPAV1@PAVVObject@@P82@AEHXZPAX@Z @5150 NONAME
?loadResources@VWindow@@UAEHAAVVRscArchiver@@@Z              @5151 NONAME
?replaceChild@VWindow@@QAEXPAV1@0@Z                          @5152 NONAME
?findComponentWindow@VWindow@@QAEPAVVComponentWindow@@ABVVString@@PAVVClass@@@Z @5153 NONAME
?setEventVector@VWindow@@UAEXW4Event@1@PAVVObject@@P83@AEHXZ@Z @5154 NONAME
?vectorEvent@VWindow@@QAEHH@Z                                @5155 NONAME
?VWinStyleVWinStyle@@YAPAXXZ                                 @5156 NONAME
?iam@VWinStyle@@UAEPAVVClass@@XZ                             @5157 NONAME
?add@VWinStyle@@QAEXABVVStyleExpression@@@Z                  @5158 NONAME
?remove@VWinStyle@@QAEXABVVStyleExpression@@@Z               @5159 NONAME
?set@VWinStyle@@QAEXABVVStyleExpression@@@Z                  @5160 NONAME
?add@VWinStyle@@QAEXABV1@@Z                                  @5161 NONAME
?remove@VWinStyle@@QAEXABV1@@Z                               @5162 NONAME
?set@VWinStyle@@QAEXABV1@@Z                                  @5163 NONAME
?set@VWinStyle@@UAEXABVVStyle@@@Z                            @5164 NONAME
?add@VWinStyle@@UAEXABVVStyle@@@Z                            @5165 NONAME
?remove@VWinStyle@@UAEXABVVStyle@@@Z                         @5166 NONAME
?getFrom@VWinStyle@@UAEXAAVVArchiver@@@Z                     @5167 NONAME
?putTo@VWinStyle@@UAEXAAVVArchiver@@@Z                       @5168 NONAME
?VWorkBookVWorkBook@@YAPAXXZ                                 @5169 NONAME
?iam@VWorkBook@@UAEPAVVClass@@XZ                             @5170 NONAME
??0VWorkBook@@QAE@XZ                                         @5171 NONAME
??0VWorkBook@@QAE@ABVVFrame@@PAVVWindow@@ABVVStyle@@@Z       @5172 NONAME
??0VWorkBook@@QAE@ABVVString@@ABVVFrame@@PAVVWindow@@ABVVStyle@@@Z @5173 NONAME
??1VWorkBook@@UAE@XZ                                         @5174 NONAME
?init@VWorkBook@@AAEXXZ                                      @5175 NONAME
?getInfo@VWorkBook@@MAEXAAVVWinInfo@@@Z                      @5176 NONAME
?uponPageActive@VWorkBook@@QAEXPAVVObject@@P82@AEHXZ@Z       @5177 NONAME
?setFont@VWorkBook@@UAEXPAVVFont@@@Z                         @5178 NONAME
?setTabDims@VWorkBook@@QAEXHH@Z                              @5179 NONAME
?getPageCaption@VWorkBook@@QBEXJAAVVString@@@Z               @5180 NONAME
?enablePage@VWorkBook@@QAEXJH@Z                              @5181 NONAME
?addPage@VWorkBook@@QAEJABVVString@@AAVVRscArchiver@@0W4PagePos@1@J@Z @5182 NONAME
?addPage@VWorkBook@@QAEJABVVString@@PAVVWindow@@W4PagePos@1@J@Z @5183 NONAME
?removePage@VWorkBook@@QAEXJ@Z                               @5184 NONAME
?removeAllPages@VWorkBook@@QAEXXZ                            @5185 NONAME
?findPage@VWorkBook@@QAEJABVVString@@@Z                      @5186 NONAME
?paint@VWorkBook@@UAEHXZ                                     @5187 NONAME
?drawTabs@VWorkBook@@QAEXXZ                                  @5188 NONAME
?drawButtons@VWorkBook@@QAEXW4buttonState@1@0@Z              @5189 NONAME
?erased@VWorkBook@@UAEHXZ                                    @5190 NONAME
?mouseDn@VWorkBook@@UAEHHH@Z                                 @5191 NONAME
?mouseUp@VWorkBook@@UAEHHH@Z                                 @5192 NONAME
?gotoPage@VWorkBook@@QAEHJ@Z                                 @5193 NONAME
?updateTabs@VWorkBook@@IAEXXZ                                @5194 NONAME
?loadPageWin@VWorkBook@@IAEPAVVWindow@@AAVVRscArchiver@@ABVVString@@@Z @5195 NONAME
?recalcSizes@VWorkBook@@IAEHH@Z                              @5196 NONAME
?resized@VWorkBook@@UAEHHH@Z                                 @5197 NONAME
?refresh@VWorkBook@@QAEXH@Z                                  @5198 NONAME
?key@VWorkBook@@UAEHHD@Z                                     @5199 NONAME
?putTo@VWorkBook@@UAEXAAVVArchiver@@@Z                       @5200 NONAME
?putTo@VWorkBook@@QAEXAAVVArchiver@@H@Z                      @5201 NONAME
?getFrom@VWorkBook@@UAEXAAVVArchiver@@@Z                     @5202 NONAME
?getFrom@VWorkBook@@UAEXAAVVArchiver@@PAVVObject@@H@Z        @5203 NONAME
?realize@VWorkBook@@UAEXPAVVWindow@@@Z                       @5204 NONAME
?loadResources@VWorkBook@@UAEHAAVVRscArchiver@@@Z            @5205 NONAME
?VWorkPageVWorkPage@@YAPAXXZ                                 @5206 NONAME
?iam@VWorkPage@@UAEPAVVClass@@XZ                             @5207 NONAME
??0VWorkPage@@QAE@XZ                                         @5208 NONAME
??0VWorkPage@@QAE@ABVVString@@0PAVVWindow@@H@Z               @5209 NONAME
??1VWorkPage@@UAE@XZ                                         @5210 NONAME
?getFrom@VWorkPage@@UAEXAAVVArchiver@@@Z                     @5211 NONAME
?getFrom@VWorkPage@@UAEXAAVVArchiver@@PAVVObject@@H@Z        @5212 NONAME
?putTo@VWorkPage@@UAEXAAVVArchiver@@@Z                       @5213 NONAME
?VYesNoVYesNo@@YAPAXXZ                                       @5214 NONAME
?iam@VYesNo@@UAEPAVVClass@@XZ                                @5215 NONAME
??0VYesNo@@QAE@XZ                                            @5216 NONAME
??0VYesNo@@QAE@HHPAW4yesNoCancel@@PBD1PAVVWindow@@@Z         @5217 NONAME
??RVYesNo@@QAEXHHPAW4yesNoCancel@@PBD1PAVVWindow@@@Z         @5218 NONAME
?dialog@VYesNo@@SA?AW4yesNoCancel@@PAVVWindow@@HW42@PBDZZ    @5219 NONAME
?warning@VYesNo@@SA?AW4yesNoCancel@@HW42@PBDPAVVWindow@@1ZZ  @5220 NONAME
?action@VYesNo@@SA?AW4yesNoCancel@@HW42@PBDPAVVWindow@@1ZZ   @5221 NONAME
?question@VYesNo@@SA?AW4yesNoCancel@@HW42@PBDPAVVWindow@@1ZZ @5222 NONAME
?nullResultReport@@3VVResultReport@@A                        @6000 NONAME
?mswioResultReport@@3VMSWIOResultReport@@A                   @6001 NONAME
?cioResultReport@@3VCIOResultReport@@A                       @6002 NONAME
?CvRcDragDoNotEnterCursor@@3PADA                             @6003 NONAME
?CvRcDragMultiCopyCursor@@3PADA                              @6004 NONAME
?CvRcDragMultiMoveCursor@@3PADA                              @6005 NONAME
?CvRcDragCopyCursor@@3PADA                                   @6006 NONAME
?CvRcDragMoveCursor@@3PADA                                   @6007 NONAME
?CvRcPanWCursor@@3PADA                                       @6008 NONAME
?CvRcPanECursor@@3PADA                                       @6009 NONAME
?CvRcPanSCursor@@3PADA                                       @6010 NONAME
?CvRcPanNCursor@@3PADA                                       @6011 NONAME
?CvRcPanSwCursor@@3PADA                                      @6012 NONAME
?CvRcPanSeCursor@@3PADA                                      @6013 NONAME
?CvRcPanNwCursor@@3PADA                                      @6014 NONAME
?CvRcPanNeCursor@@3PADA                                      @6015 NONAME
?CvRcPanEwCursor@@3PADA                                      @6016 NONAME
?CvRcPanNsCursor@@3PADA                                      @6017 NONAME
?CvRcPanNsewCursor@@3PADA                                    @6018 NONAME
?CvRcVerSashCursor@@3PADA                                    @6019 NONAME
?CvRcHorSashCursor@@3PADA                                    @6020 NONAME
?CvRcStdAppIcon@@3PADA                                       @6021 NONAME
?CvRcPanEwBitmap@@3PADA                                      @6022 NONAME
?CvRcPanNsBitmap@@3PADA                                      @6023 NONAME
?CvRcPanNsewBitmap@@3PADA                                    @6024 NONAME
?CvRcStdImage3@@3PADA                                        @6025 NONAME
?CvRcStdImage2@@3PADA                                        @6026 NONAME
?CvRcStdImage1@@3PADA                                        @6027 NONAME
?vStyleTreeDisplaySet@@3PAPBVVExclusiveStyle@@A              @6028 NONAME
?vStyleNotebookBindingSet@@3PAPBVVExclusiveStyle@@A          @6029 NONAME
?vStyleTabTypeSet@@3PAPBVVExclusiveStyle@@A                  @6030 NONAME
?vStyleTabPlacementSet@@3PAPBVVExclusiveStyle@@A             @6031 NONAME
?vStyleSelectionSet@@3PAPBVVExclusiveStyle@@A                @6032 NONAME
?vStyleSizeRedrawSet@@3PAPBVVExclusiveStyle@@A               @6033 NONAME
?vStyleShadowSet@@3PAPBVVExclusiveStyle@@A                   @6034 NONAME
?vStyleEditSet@@3PAPBVVExclusiveStyle@@A                     @6035 NONAME
?vStyleDialogSet@@3PAPBVVExclusiveStyle@@A                   @6036 NONAME
?vStyleHelpBoxSet@@3PAPBVVExclusiveStyle@@A                  @6037 NONAME
?vStyleCaptionSet@@3PAPBVVExclusiveStyle@@A                  @6038 NONAME
?vStyleSortedSet@@3PAPBVVExclusiveStyle@@A                   @6039 NONAME
?vStyleWordWrapSet@@3PAPBVVExclusiveStyle@@A                 @6040 NONAME
?vStyleVisiblitySet@@3PAPBVVExclusiveStyle@@A                @6041 NONAME
?vStyleJustificationSet@@3PAPBVVExclusiveStyle@@A            @6042 NONAME
?vStyleAutoDefaultSet@@3PAPBVVExclusiveStyle@@A              @6043 NONAME
?vStyleDefaultButtonSet@@3PAPBVVExclusiveStyle@@A            @6044 NONAME
?vStyleAutoToggleSet@@3PAPBVVExclusiveStyle@@A               @6045 NONAME
?vStyleBorderSet@@3PAPBVVExclusiveStyle@@A                   @6046 NONAME
?vStyleComboSet@@3PAPBVVExclusiveStyle@@A                    @6047 NONAME
?vStyleMaximizedSet@@3PAPBVVExclusiveStyle@@A                @6048 NONAME
?vStyleMinimizeSet@@3PAPBVVExclusiveStyle@@A                 @6049 NONAME
?vStyleMaximizeSet@@3PAPBVVExclusiveStyle@@A                 @6050 NONAME
?vStyleVerticalSet@@3PAPBVVExclusiveStyle@@A                 @6051 NONAME
?vStyleHorizontalSet@@3PAPBVVExclusiveStyle@@A               @6052 NONAME
?vStyleSizeableSet@@3PAPBVVExclusiveStyle@@A                 @6053 NONAME
?vStyle3DSet@@3PAPBVVExclusiveStyle@@A                       @6054 NONAME
?vStyleCloseBoxSet@@3PAPBVVExclusiveStyle@@A                 @6055 NONAME
?StyleBorder@@3VVExclusiveStyle@@B                           @6056 NONAME
?StyleRestored@@3VVExclusiveStyle@@B                         @6057 NONAME
?StyleNoDefaultButton@@3VVExclusiveStyle@@B                  @6058 NONAME
?StyleHorizontal@@3VVExclusiveStyle@@B                       @6059 NONAME
?StyleDefault@@3VVStyle@@B                                   @6060 NONAME
?StyleSimpleDock@@3VVStyle@@B                                @6061 NONAME
?StyleSingleSelect@@3VVExclusiveStyle@@B                     @6062 NONAME
?StyleModalBorder@@3VVExclusiveStyle@@B                      @6063 NONAME
?StyleHelpBox@@3VVExclusiveStyle@@B                          @6064 NONAME
?StyleNoHelpBox@@3VVExclusiveStyle@@B                        @6065 NONAME
?StyleRowHilite@@3VVStyle@@B                                 @6066 NONAME
?StyleMultiSelect@@3VVExclusiveStyle@@B                      @6067 NONAME
?StyleHidden@@3VVExclusiveStyle@@B                           @6068 NONAME
?StyleDialogWin@@3VVExclusiveStyle@@B                        @6069 NONAME
?StyleDialogPM@@3VVExclusiveStyle@@B                         @6070 NONAME
?StyleAscending@@3VVExclusiveStyle@@B                        @6071 NONAME
?StyleUnsizable@@3VVExclusiveStyle@@B                        @6072 NONAME
?StyleNoMinimize@@3VVExclusiveStyle@@B                       @6073 NONAME
?StyleTabLeft@@3VVExclusiveStyle@@B                          @6074 NONAME
?StyleCaption@@3VVExclusiveStyle@@B                          @6075 NONAME
?StyleNoCaption@@3VVExclusiveStyle@@B                        @6076 NONAME
?StyleNoAutoToggle@@3VVExclusiveStyle@@B                     @6077 NONAME
?StyleSizable@@3VVExclusiveStyle@@B                          @6078 NONAME
?StyleAutoToggle@@3VVExclusiveStyle@@B                       @6079 NONAME
?StyleNoWordWrap@@3VVExclusiveStyle@@B                       @6080 NONAME
?StyleNoSizeRedraw@@3VVExclusiveStyle@@B                     @6081 NONAME
?StyleNoHorizontal@@3VVExclusiveStyle@@B                     @6082 NONAME
?StyleLeft@@3VVExclusiveStyle@@B                             @6083 NONAME
?StyleLocalSelect@@3VVStyle@@B                               @6084 NONAME
?StyleNoShadow@@3VVExclusiveStyle@@B                         @6085 NONAME
?StyleWordWrap@@3VVExclusiveStyle@@B                         @6086 NONAME
?StyleAutoDefault@@3VVExclusiveStyle@@B                      @6087 NONAME
?StyleTabBottom@@3VVExclusiveStyle@@B                        @6088 NONAME
?StyleUnsorted@@3VVExclusiveStyle@@B                         @6089 NONAME
?StyleReadOnly@@3VVExclusiveStyle@@B                         @6090 NONAME
?StyleNoAutoDefault@@3VVExclusiveStyle@@B                    @6091 NONAME
?StyleNoMaximize@@3VVExclusiveStyle@@B                       @6092 NONAME
?Style3D@@3VVExclusiveStyle@@B                               @6093 NONAME
?StyleSelectByText@@3VVStyle@@B                              @6094 NONAME
?StyleEditSecure@@3VVExclusiveStyle@@B                       @6095 NONAME
?StyleWorkTab@@3VVStyle@@B                                   @6096 NONAME
?StyleMinimized@@3VVExclusiveStyle@@B                        @6097 NONAME
?StyleMaximize@@3VVExclusiveStyle@@B                         @6098 NONAME
?StyleCloseBox@@3VVExclusiveStyle@@B                         @6099 NONAME
?StyleMinimize@@3VVExclusiveStyle@@B                         @6100 NONAME
?StyleNo3D@@3VVExclusiveStyle@@B                             @6101 NONAME
?StyleSpiralBinding@@3VVExclusiveStyle@@B                    @6102 NONAME
?StyleDescending@@3VVExclusiveStyle@@B                       @6103 NONAME
?StyleNative@@3VVStyle@@B                                    @6104 NONAME
?StyleMultiRowTabs@@3VVExclusiveStyle@@B                     @6105 NONAME
?StyleDetachFocus@@3VVStyle@@B                               @6106 NONAME
?StyleNoCloseBox@@3VVExclusiveStyle@@B                       @6107 NONAME
?StyleEditable@@3VVExclusiveStyle@@B                         @6108 NONAME
?StyleComboEditDrop@@3VVExclusiveStyle@@B                    @6109 NONAME
?StyleTabRight@@3VVExclusiveStyle@@B                         @6110 NONAME
?StyleTabTop@@3VVExclusiveStyle@@B                           @6111 NONAME
?StyleDefaultButton@@3VVExclusiveStyle@@B                    @6112 NONAME
?StyleVertical@@3VVExclusiveStyle@@B                         @6113 NONAME
?StyleRight@@3VVExclusiveStyle@@B                            @6114 NONAME
?StyleTreeList@@3VVExclusiveStyle@@B                         @6115 NONAME
?StyleComboEdit@@3VVExclusiveStyle@@B                        @6116 NONAME
?StyleSizeRedraw@@3VVExclusiveStyle@@B                       @6117 NONAME
?StyleDragEnabled@@3VVStyle@@B                               @6118 NONAME
?StyleSolidBinding@@3VVExclusiveStyle@@B                     @6119 NONAME
?StyleMaximized@@3VVExclusiveStyle@@B                        @6120 NONAME
?StyleButtonTabs@@3VVExclusiveStyle@@B                       @6121 NONAME
?StyleComboDrop@@3VVExclusiveStyle@@B                        @6122 NONAME
?StyleSingleRowTabs@@3VVExclusiveStyle@@B                    @6123 NONAME
?StyleFlatList@@3VVExclusiveStyle@@B                         @6124 NONAME
?StyleNoBorder@@3VVExclusiveStyle@@B                         @6125 NONAME
?StyleVisible@@3VVExclusiveStyle@@B                          @6126 NONAME
?StyleShadow@@3VVExclusiveStyle@@B                           @6127 NONAME
?StyleCenter@@3VVExclusiveStyle@@B                           @6128 NONAME
?StyleNoVertical@@3VVExclusiveStyle@@B                       @6129 NONAME
?StyleUndocked@@3VVStyle@@B                                  @6130 NONAME
